

Microchip MPLAB XC8 Assembler V2.10 build 88905656 
                                                                                               Thu Dec 05 00:49:43 2019

Microchip MPLAB XC8 C Compiler v2.10 (Free license) build 20190730164152 Og1 
     1                           	processor	16F877A
     2                           	opt	pw 120
     3                           	opt	flic
     4                           	psect	idataBANK0,global,class=CODE,delta=2
     5                           	psect	cinit,global,class=CODE,merge=1,delta=2
     6                           	psect	bssBANK0,global,class=BANK0,space=1,delta=1
     7                           	psect	dataBANK0,global,class=BANK0,space=1,delta=1
     8                           	psect	inittext,global,class=CODE,delta=2
     9                           	psect	clrtext,global,class=CODE,delta=2
    10                           	psect	cstackCOMMON,global,class=COMMON,space=1,delta=1
    11                           	psect	cstackBANK0,global,class=BANK0,space=1,delta=1
    12                           	psect	maintext,global,class=CODE,split=1,delta=2
    13                           	psect	text1,local,class=CODE,merge=1,delta=2
    14                           	psect	text2,local,class=CODE,merge=1,delta=2
    15                           	psect	text3,local,class=CODE,merge=1,delta=2
    16                           	psect	text4,local,class=CODE,merge=1,delta=2
    17                           	psect	text5,local,class=CODE,merge=1,delta=2
    18                           	psect	text6,local,class=CODE,merge=1,delta=2
    19                           	psect	text7,local,class=CODE,merge=1,delta=2
    20                           	psect	text8,local,class=CODE,merge=1,delta=2
    21                           	psect	text9,local,class=CODE,merge=1,delta=2
    22                           	psect	text10,local,class=CODE,merge=1,delta=2
    23                           	psect	text11,local,class=CODE,merge=1,delta=2
    24                           	psect	text12,local,class=CODE,merge=1,delta=2
    25                           	psect	text13,local,class=CODE,merge=1,delta=2
    26                           	psect	text14,local,class=CODE,merge=1,delta=2
    27                           	psect	text15,local,class=CODE,merge=1,delta=2
    28                           	psect	text16,local,class=CODE,merge=1,delta=2
    29                           	psect	text17,local,class=CODE,merge=1,delta=2
    30                           	psect	text18,local,class=CODE,merge=1,delta=2
    31                           	psect	text19,local,class=CODE,merge=1,delta=2
    32                           	psect	text20,local,class=CODE,merge=1,delta=2,group=1
    33                           	psect	text21,local,class=CODE,merge=1,delta=2,group=1
    34                           	psect	text22,local,class=CODE,merge=1,delta=2,group=1
    35                           	psect	text23,local,class=CODE,merge=1,delta=2
    36                           	psect	text24,local,class=CODE,merge=1,delta=2
    37                           	psect	text25,local,class=CODE,merge=1,delta=2
    38                           	psect	text26,local,class=CODE,merge=1,delta=2
    39                           	psect	text27,local,class=CODE,merge=1,delta=2
    40                           	psect	text28,local,class=CODE,merge=1,delta=2
    41                           	psect	text29,local,class=CODE,merge=1,delta=2
    42                           	psect	text30,local,class=CODE,merge=1,delta=2
    43                           	psect	text31,local,class=CODE,merge=1,delta=2
    44                           	psect	text32,local,class=CODE,merge=1,delta=2
    45                           	psect	text33,local,class=CODE,merge=1,delta=2
    46                           	psect	text34,local,class=CODE,merge=1,delta=2
    47                           	psect	text35,local,class=CODE,merge=1,delta=2
    48                           	psect	text36,local,class=CODE,merge=1,delta=2
    49                           	psect	text37,local,class=CODE,merge=1,delta=2
    50                           	psect	text38,local,class=CODE,merge=1,delta=2,group=1
    51                           	psect	text39,local,class=CODE,merge=1,delta=2
    52                           	dabs	1,0x7E,2
    53  0000                     
    54                           ; Version 2.10
    55                           ; Generated 31/07/2019 GMT
    56                           ; 
    57                           ; Copyright © 2019, Microchip Technology Inc. and its subsidiaries ("Microchip")
    58                           ; All rights reserved.
    59                           ; 
    60                           ; This software is developed by Microchip Technology Inc. and its subsidiaries ("Microch
      +                          ip").
    61                           ; 
    62                           ; Redistribution and use in source and binary forms, with or without modification, are
    63                           ; permitted provided that the following conditions are met:
    64                           ; 
    65                           ;     1. Redistributions of source code must retain the above copyright notice, this lis
      +                          t of
    66                           ;        conditions and the following disclaimer.
    67                           ; 
    68                           ;     2. Redistributions in binary form must reproduce the above copyright notice, this 
      +                          list
    69                           ;        of conditions and the following disclaimer in the documentation and/or other
    70                           ;        materials provided with the distribution.
    71                           ; 
    72                           ;     3. Microchip's name may not be used to endorse or promote products derived from th
      +                          is
    73                           ;        software without specific prior written permission.
    74                           ; 
    75                           ; THIS SOFTWARE IS PROVIDED BY MICROCHIP "AS IS" AND ANY EXPRESS OR IMPLIED WARRANTIES,
    76                           ; INCLUDING, BUT NOT LIMITED TO, THE IMPLIED WARRANTIES OF MERCHANTABILITY AND FITNESS F
      +                          OR
    77                           ; PURPOSE ARE DISCLAIMED.  IN NO EVENT SHALL MICROCHIP BE LIABLE FOR ANY DIRECT, INDIREC
      +                          T,
    78                           ; INCIDENTAL, SPECIAL, EXEMPLARY, OR CONSEQUENTIAL DAMAGES (INCLUDING BUT NOT LIMITED TO
    79                           ; PROCUREMENT OF SUBSTITUTE GOODS OR SERVICES; LOSS OF USE, DATA OR PROFITS; OR BUSINESS
    80                           ; INTERRUPTION) HOWSOEVER CAUSED AND ON ANY THEORY OF LIABILITY, WHETHER IN CONTRACT, ST
      +                          RICT
    81                           ; LIABILITY, OR TORT (INCLUDING NEGLIGENCE OR OTHERWISE) ARISING IN ANY WAY OUT OF THE U
      +                          SE OF
    82                           ; THIS SOFTWARE, EVEN IF ADVISED OF THE POSSIBILITY OF SUCH DAMAGE.
    83                           ; 
    84                           ; 
    85                           ; Code-generator required, PIC16F877A Definitions
    86                           ; 
    87                           ; SFR Addresses
    88  0000                     	;# 
    89  0001                     	;# 
    90  0002                     	;# 
    91  0003                     	;# 
    92  0004                     	;# 
    93  0005                     	;# 
    94  0006                     	;# 
    95  0007                     	;# 
    96  0008                     	;# 
    97  0009                     	;# 
    98  000A                     	;# 
    99  000B                     	;# 
   100  000C                     	;# 
   101  000D                     	;# 
   102  000E                     	;# 
   103  000E                     	;# 
   104  000F                     	;# 
   105  0010                     	;# 
   106  0011                     	;# 
   107  0012                     	;# 
   108  0013                     	;# 
   109  0014                     	;# 
   110  0015                     	;# 
   111  0015                     	;# 
   112  0016                     	;# 
   113  0017                     	;# 
   114  0018                     	;# 
   115  0019                     	;# 
   116  001A                     	;# 
   117  001B                     	;# 
   118  001B                     	;# 
   119  001C                     	;# 
   120  001D                     	;# 
   121  001E                     	;# 
   122  001F                     	;# 
   123  0081                     	;# 
   124  0085                     	;# 
   125  0086                     	;# 
   126  0087                     	;# 
   127  0088                     	;# 
   128  0089                     	;# 
   129  008C                     	;# 
   130  008D                     	;# 
   131  008E                     	;# 
   132  0091                     	;# 
   133  0092                     	;# 
   134  0093                     	;# 
   135  0094                     	;# 
   136  0098                     	;# 
   137  0099                     	;# 
   138  009C                     	;# 
   139  009D                     	;# 
   140  009E                     	;# 
   141  009F                     	;# 
   142  010C                     	;# 
   143  010D                     	;# 
   144  010E                     	;# 
   145  010F                     	;# 
   146  018C                     	;# 
   147  018D                     	;# 
   148  0000                     	;# 
   149  0001                     	;# 
   150  0002                     	;# 
   151  0003                     	;# 
   152  0004                     	;# 
   153  0005                     	;# 
   154  0006                     	;# 
   155  0007                     	;# 
   156  0008                     	;# 
   157  0009                     	;# 
   158  000A                     	;# 
   159  000B                     	;# 
   160  000C                     	;# 
   161  000D                     	;# 
   162  000E                     	;# 
   163  000E                     	;# 
   164  000F                     	;# 
   165  0010                     	;# 
   166  0011                     	;# 
   167  0012                     	;# 
   168  0013                     	;# 
   169  0014                     	;# 
   170  0015                     	;# 
   171  0015                     	;# 
   172  0016                     	;# 
   173  0017                     	;# 
   174  0018                     	;# 
   175  0019                     	;# 
   176  001A                     	;# 
   177  001B                     	;# 
   178  001B                     	;# 
   179  001C                     	;# 
   180  001D                     	;# 
   181  001E                     	;# 
   182  001F                     	;# 
   183  0081                     	;# 
   184  0085                     	;# 
   185  0086                     	;# 
   186  0087                     	;# 
   187  0088                     	;# 
   188  0089                     	;# 
   189  008C                     	;# 
   190  008D                     	;# 
   191  008E                     	;# 
   192  0091                     	;# 
   193  0092                     	;# 
   194  0093                     	;# 
   195  0094                     	;# 
   196  0098                     	;# 
   197  0099                     	;# 
   198  009C                     	;# 
   199  009D                     	;# 
   200  009E                     	;# 
   201  009F                     	;# 
   202  010C                     	;# 
   203  010D                     	;# 
   204  010E                     	;# 
   205  010F                     	;# 
   206  018C                     	;# 
   207  018D                     	;# 
   208  0000                     	;# 
   209  0001                     	;# 
   210  0002                     	;# 
   211  0003                     	;# 
   212  0004                     	;# 
   213  0005                     	;# 
   214  0006                     	;# 
   215  0007                     	;# 
   216  0008                     	;# 
   217  0009                     	;# 
   218  000A                     	;# 
   219  000B                     	;# 
   220  000C                     	;# 
   221  000D                     	;# 
   222  000E                     	;# 
   223  000E                     	;# 
   224  000F                     	;# 
   225  0010                     	;# 
   226  0011                     	;# 
   227  0012                     	;# 
   228  0013                     	;# 
   229  0014                     	;# 
   230  0015                     	;# 
   231  0015                     	;# 
   232  0016                     	;# 
   233  0017                     	;# 
   234  0018                     	;# 
   235  0019                     	;# 
   236  001A                     	;# 
   237  001B                     	;# 
   238  001B                     	;# 
   239  001C                     	;# 
   240  001D                     	;# 
   241  001E                     	;# 
   242  001F                     	;# 
   243  0081                     	;# 
   244  0085                     	;# 
   245  0086                     	;# 
   246  0087                     	;# 
   247  0088                     	;# 
   248  0089                     	;# 
   249  008C                     	;# 
   250  008D                     	;# 
   251  008E                     	;# 
   252  0091                     	;# 
   253  0092                     	;# 
   254  0093                     	;# 
   255  0094                     	;# 
   256  0098                     	;# 
   257  0099                     	;# 
   258  009C                     	;# 
   259  009D                     	;# 
   260  009E                     	;# 
   261  009F                     	;# 
   262  010C                     	;# 
   263  010D                     	;# 
   264  010E                     	;# 
   265  010F                     	;# 
   266  018C                     	;# 
   267  018D                     	;# 
   268  0000                     	;# 
   269  0001                     	;# 
   270  0002                     	;# 
   271  0003                     	;# 
   272  0004                     	;# 
   273  0005                     	;# 
   274  0006                     	;# 
   275  0007                     	;# 
   276  0008                     	;# 
   277  0009                     	;# 
   278  000A                     	;# 
   279  000B                     	;# 
   280  000C                     	;# 
   281  000D                     	;# 
   282  000E                     	;# 
   283  000E                     	;# 
   284  000F                     	;# 
   285  0010                     	;# 
   286  0011                     	;# 
   287  0012                     	;# 
   288  0013                     	;# 
   289  0014                     	;# 
   290  0015                     	;# 
   291  0015                     	;# 
   292  0016                     	;# 
   293  0017                     	;# 
   294  0018                     	;# 
   295  0019                     	;# 
   296  001A                     	;# 
   297  001B                     	;# 
   298  001B                     	;# 
   299  001C                     	;# 
   300  001D                     	;# 
   301  001E                     	;# 
   302  001F                     	;# 
   303  0081                     	;# 
   304  0085                     	;# 
   305  0086                     	;# 
   306  0087                     	;# 
   307  0088                     	;# 
   308  0089                     	;# 
   309  008C                     	;# 
   310  008D                     	;# 
   311  008E                     	;# 
   312  0091                     	;# 
   313  0092                     	;# 
   314  0093                     	;# 
   315  0094                     	;# 
   316  0098                     	;# 
   317  0099                     	;# 
   318  009C                     	;# 
   319  009D                     	;# 
   320  009E                     	;# 
   321  009F                     	;# 
   322  010C                     	;# 
   323  010D                     	;# 
   324  010E                     	;# 
   325  010F                     	;# 
   326  018C                     	;# 
   327  018D                     	;# 
   328  0000                     	;# 
   329  0001                     	;# 
   330  0002                     	;# 
   331  0003                     	;# 
   332  0004                     	;# 
   333  0005                     	;# 
   334  0006                     	;# 
   335  0007                     	;# 
   336  0008                     	;# 
   337  0009                     	;# 
   338  000A                     	;# 
   339  000B                     	;# 
   340  000C                     	;# 
   341  000D                     	;# 
   342  000E                     	;# 
   343  000E                     	;# 
   344  000F                     	;# 
   345  0010                     	;# 
   346  0011                     	;# 
   347  0012                     	;# 
   348  0013                     	;# 
   349  0014                     	;# 
   350  0015                     	;# 
   351  0015                     	;# 
   352  0016                     	;# 
   353  0017                     	;# 
   354  0018                     	;# 
   355  0019                     	;# 
   356  001A                     	;# 
   357  001B                     	;# 
   358  001B                     	;# 
   359  001C                     	;# 
   360  001D                     	;# 
   361  001E                     	;# 
   362  001F                     	;# 
   363  0081                     	;# 
   364  0085                     	;# 
   365  0086                     	;# 
   366  0087                     	;# 
   367  0088                     	;# 
   368  0089                     	;# 
   369  008C                     	;# 
   370  008D                     	;# 
   371  008E                     	;# 
   372  0091                     	;# 
   373  0092                     	;# 
   374  0093                     	;# 
   375  0094                     	;# 
   376  0098                     	;# 
   377  0099                     	;# 
   378  009C                     	;# 
   379  009D                     	;# 
   380  009E                     	;# 
   381  009F                     	;# 
   382  010C                     	;# 
   383  010D                     	;# 
   384  010E                     	;# 
   385  010F                     	;# 
   386  018C                     	;# 
   387  018D                     	;# 
   388  0000                     	;# 
   389  0001                     	;# 
   390  0002                     	;# 
   391  0003                     	;# 
   392  0004                     	;# 
   393  0005                     	;# 
   394  0006                     	;# 
   395  0007                     	;# 
   396  0008                     	;# 
   397  0009                     	;# 
   398  000A                     	;# 
   399  000B                     	;# 
   400  000C                     	;# 
   401  000D                     	;# 
   402  000E                     	;# 
   403  000E                     	;# 
   404  000F                     	;# 
   405  0010                     	;# 
   406  0011                     	;# 
   407  0012                     	;# 
   408  0013                     	;# 
   409  0014                     	;# 
   410  0015                     	;# 
   411  0015                     	;# 
   412  0016                     	;# 
   413  0017                     	;# 
   414  0018                     	;# 
   415  0019                     	;# 
   416  001A                     	;# 
   417  001B                     	;# 
   418  001B                     	;# 
   419  001C                     	;# 
   420  001D                     	;# 
   421  001E                     	;# 
   422  001F                     	;# 
   423  0081                     	;# 
   424  0085                     	;# 
   425  0086                     	;# 
   426  0087                     	;# 
   427  0088                     	;# 
   428  0089                     	;# 
   429  008C                     	;# 
   430  008D                     	;# 
   431  008E                     	;# 
   432  0091                     	;# 
   433  0092                     	;# 
   434  0093                     	;# 
   435  0094                     	;# 
   436  0098                     	;# 
   437  0099                     	;# 
   438  009C                     	;# 
   439  009D                     	;# 
   440  009E                     	;# 
   441  009F                     	;# 
   442  010C                     	;# 
   443  010D                     	;# 
   444  010E                     	;# 
   445  010F                     	;# 
   446  018C                     	;# 
   447  018D                     	;# 
   448  0000                     	;# 
   449  0001                     	;# 
   450  0002                     	;# 
   451  0003                     	;# 
   452  0004                     	;# 
   453  0005                     	;# 
   454  0006                     	;# 
   455  0007                     	;# 
   456  0008                     	;# 
   457  0009                     	;# 
   458  000A                     	;# 
   459  000B                     	;# 
   460  000C                     	;# 
   461  000D                     	;# 
   462  000E                     	;# 
   463  000E                     	;# 
   464  000F                     	;# 
   465  0010                     	;# 
   466  0011                     	;# 
   467  0012                     	;# 
   468  0013                     	;# 
   469  0014                     	;# 
   470  0015                     	;# 
   471  0015                     	;# 
   472  0016                     	;# 
   473  0017                     	;# 
   474  0018                     	;# 
   475  0019                     	;# 
   476  001A                     	;# 
   477  001B                     	;# 
   478  001B                     	;# 
   479  001C                     	;# 
   480  001D                     	;# 
   481  001E                     	;# 
   482  001F                     	;# 
   483  0081                     	;# 
   484  0085                     	;# 
   485  0086                     	;# 
   486  0087                     	;# 
   487  0088                     	;# 
   488  0089                     	;# 
   489  008C                     	;# 
   490  008D                     	;# 
   491  008E                     	;# 
   492  0091                     	;# 
   493  0092                     	;# 
   494  0093                     	;# 
   495  0094                     	;# 
   496  0098                     	;# 
   497  0099                     	;# 
   498  009C                     	;# 
   499  009D                     	;# 
   500  009E                     	;# 
   501  009F                     	;# 
   502  010C                     	;# 
   503  010D                     	;# 
   504  010E                     	;# 
   505  010F                     	;# 
   506  018C                     	;# 
   507  018D                     	;# 
   508  0000                     	;# 
   509  0001                     	;# 
   510  0002                     	;# 
   511  0003                     	;# 
   512  0004                     	;# 
   513  0005                     	;# 
   514  0006                     	;# 
   515  0007                     	;# 
   516  0008                     	;# 
   517  0009                     	;# 
   518  000A                     	;# 
   519  000B                     	;# 
   520  000C                     	;# 
   521  000D                     	;# 
   522  000E                     	;# 
   523  000E                     	;# 
   524  000F                     	;# 
   525  0010                     	;# 
   526  0011                     	;# 
   527  0012                     	;# 
   528  0013                     	;# 
   529  0014                     	;# 
   530  0015                     	;# 
   531  0015                     	;# 
   532  0016                     	;# 
   533  0017                     	;# 
   534  0018                     	;# 
   535  0019                     	;# 
   536  001A                     	;# 
   537  001B                     	;# 
   538  001B                     	;# 
   539  001C                     	;# 
   540  001D                     	;# 
   541  001E                     	;# 
   542  001F                     	;# 
   543  0081                     	;# 
   544  0085                     	;# 
   545  0086                     	;# 
   546  0087                     	;# 
   547  0088                     	;# 
   548  0089                     	;# 
   549  008C                     	;# 
   550  008D                     	;# 
   551  008E                     	;# 
   552  0091                     	;# 
   553  0092                     	;# 
   554  0093                     	;# 
   555  0094                     	;# 
   556  0098                     	;# 
   557  0099                     	;# 
   558  009C                     	;# 
   559  009D                     	;# 
   560  009E                     	;# 
   561  009F                     	;# 
   562  010C                     	;# 
   563  010D                     	;# 
   564  010E                     	;# 
   565  010F                     	;# 
   566  018C                     	;# 
   567  018D                     	;# 
   568  0000                     	;# 
   569  0001                     	;# 
   570  0002                     	;# 
   571  0003                     	;# 
   572  0004                     	;# 
   573  0005                     	;# 
   574  0006                     	;# 
   575  0007                     	;# 
   576  0008                     	;# 
   577  0009                     	;# 
   578  000A                     	;# 
   579  000B                     	;# 
   580  000C                     	;# 
   581  000D                     	;# 
   582  000E                     	;# 
   583  000E                     	;# 
   584  000F                     	;# 
   585  0010                     	;# 
   586  0011                     	;# 
   587  0012                     	;# 
   588  0013                     	;# 
   589  0014                     	;# 
   590  0015                     	;# 
   591  0015                     	;# 
   592  0016                     	;# 
   593  0017                     	;# 
   594  0018                     	;# 
   595  0019                     	;# 
   596  001A                     	;# 
   597  001B                     	;# 
   598  001B                     	;# 
   599  001C                     	;# 
   600  001D                     	;# 
   601  001E                     	;# 
   602  001F                     	;# 
   603  0081                     	;# 
   604  0085                     	;# 
   605  0086                     	;# 
   606  0087                     	;# 
   607  0088                     	;# 
   608  0089                     	;# 
   609  008C                     	;# 
   610  008D                     	;# 
   611  008E                     	;# 
   612  0091                     	;# 
   613  0092                     	;# 
   614  0093                     	;# 
   615  0094                     	;# 
   616  0098                     	;# 
   617  0099                     	;# 
   618  009C                     	;# 
   619  009D                     	;# 
   620  009E                     	;# 
   621  009F                     	;# 
   622  010C                     	;# 
   623  010D                     	;# 
   624  010E                     	;# 
   625  010F                     	;# 
   626  018C                     	;# 
   627  018D                     	;# 
   628                           
   629                           	psect	idataBANK0
   630  14C0                     __pidataBANK0:	
   631                           
   632                           ;initializer for _table
   633  14C0  3400               	retlw	0
   634  14C1  3400               	retlw	0
   635  14C2  3440               	retlw	64
   636  14C3  3412               	retlw	18
   637  14C4  3412               	retlw	18
   638  14C5  3406               	retlw	6
   639  14C6  3419               	retlw	25
   640  14C7  3400               	retlw	0
   641  0009                     _PORTE	set	9
   642  0008                     _PORTD	set	8
   643  003E                     _RC6	set	62
   644  003F                     _RC7	set	63
   645  003C                     _RC4	set	60
   646  003B                     _RC3	set	59
   647  003A                     _RC2	set	58
   648  0039                     _RC1	set	57
   649  0038                     _RC0	set	56
   650  004A                     _RE2	set	74
   651  0034                     _RB4	set	52
   652  0031                     _RB1	set	49
   653  0035                     _RB5	set	53
   654  0030                     _RB0	set	48
   655  0048                     _RE0	set	72
   656  002B                     _RA3	set	43
   657  002C                     _RA4	set	44
   658  002D                     _RA5	set	45
   659  002A                     _RA2	set	42
   660  0028                     _RA0	set	40
   661  0087                     _TRISC	set	135
   662  0085                     _TRISA	set	133
   663  0089                     _TRISE	set	137
   664  0081                     _OPTION_REG	set	129
   665  0088                     _TRISD	set	136
   666  009F                     _ADCON1	set	159
   667  0086                     _TRISB	set	134
   668  0434                     _TRISB4	set	1076
   669  0448                     _TRISE0	set	1096
   670  0428                     _TRISA0	set	1064
   671                           
   672                           ; #config settings
   673  0000                     
   674                           	psect	cinit
   675  07E6                     start_initialization:	
   676  07E6                     __initialization:	
   677                           
   678                           ; Initialize objects allocated to BANK0
   679  07E6  1383               	bcf	3,7	;select IRP bank0
   680  07E7  3069               	movlw	low (__pdataBANK0+8)
   681  07E8  00FD               	movwf	btemp+-1
   682  07E9  3014               	movlw	high __pidataBANK0
   683  07EA  00FE               	movwf	btemp
   684  07EB  30C0               	movlw	low __pidataBANK0
   685  07EC  00FF               	movwf	btemp+1
   686  07ED  3061               	movlw	low __pdataBANK0
   687  07EE  0084               	movwf	4
   688  07EF  160A  118A  251C  120A  118A  	fcall	init_ram0
   689                           
   690                           ; Clear objects allocated to BANK0
   691  07F4  3020               	movlw	low __pbssBANK0
   692  07F5  0084               	movwf	4
   693  07F6  3055               	movlw	low (__pbssBANK0+53)
   694  07F7  160A  118A  24B8  120A  118A  	fcall	clear_ram0
   695  07FC                     end_of_initialization:	
   696                           ;End of C runtime variable initialization code
   697                           
   698  07FC                     __end_of__initialization:	
   699  07FC  0183               	clrf	3
   700  07FD  120A  158A  2C49   	ljmp	_main	;jump to C main() function
   701                           
   702                           	psect	bssBANK0
   703  0020                     __pbssBANK0:	
   704  0020                     _table1:	
   705  0020                     	ds	7
   706  0027                     _day_counter:	
   707  0027                     	ds	2
   708  0029                     _count:	
   709  0029                     	ds	2
   710  002B                     _stats:	
   711  002B                     	ds	2
   712  002D                     _day_of_week_var:	
   713  002D                     	ds	2
   714  002F                     _day_high:	
   715  002F                     	ds	2
   716  0031                     _day_low:	
   717  0031                     	ds	2
   718  0033                     _z:	
   719  0033                     	ds	2
   720  0035                     _y:	
   721  0035                     	ds	2
   722  0037                     _x:	
   723  0037                     	ds	2
   724  0039                     _w:	
   725  0039                     	ds	2
   726  003B                     _t:	
   727  003B                     	ds	2
   728  003D                     _wd:	
   729  003D                     	ds	2
   730  003F                     read_byte@j:	
   731  003F                     	ds	1
   732  0040                     _var2:	
   733  0040                     	ds	1
   734  0041                     _var1:	
   735  0041                     	ds	1
   736  0042                     _buzzer_watcher1:	
   737  0042                     	ds	1
   738  0043                     _buzzer_watcher:	
   739  0043                     	ds	1
   740  0044                     _lower_t:	
   741  0044                     	ds	1
   742  0045                     _upper_t:	
   743  0045                     	ds	1
   744  0046                     _hrs_limiter:	
   745  0046                     	ds	1
   746  0047                     _day_hex:	
   747  0047                     	ds	1
   748  0048                     _c:	
   749  0048                     	ds	1
   750  0049                     _b:	
   751  0049                     	ds	1
   752  004A                     _a:	
   753  004A                     	ds	1
   754  004B                     _wanfen:	
   755  004B                     	ds	1
   756  004C                     _qianfen:	
   757  004C                     	ds	1
   758  004D                     _baifen:	
   759  004D                     	ds	1
   760  004E                     _shifen:	
   761  004E                     	ds	1
   762  004F                     _ge:	
   763  004F                     	ds	1
   764  0050                     _shi:	
   765  0050                     	ds	1
   766  0051                     _TX:	
   767  0051                     	ds	1
   768  0052                     _TZ:	
   769  0052                     	ds	1
   770  0053                     _THV:	
   771  0053                     	ds	1
   772  0054                     _TLV:	
   773  0054                     	ds	1
   774                           
   775                           	psect	dataBANK0
   776  0061                     __pdataBANK0:	
   777  0061                     _table:	
   778  0061                     	ds	8
   779                           
   780                           	psect	inittext
   781  1518                     init_fetch0:	
   782                           ;	Called with low address in FSR and high address in W
   783                           
   784  1518  087E               	movf	btemp,w
   785  1519  008A               	movwf	10
   786  151A  087F               	movf	btemp+1,w
   787  151B  0082               	movwf	2
   788  151C                     init_ram0:	
   789                           ;Called with:
   790                           ;	high address of idata address in btemp 
   791                           ;	low address of idata address in btemp+1 
   792                           ;	low address of data in FSR
   793                           ;	high address + 1 of data in btemp-1
   794                           
   795  151C  160A  118A  2518  160A  118A  	fcall	init_fetch0
   796  1521  0080               	movwf	0
   797  1522  0A84               	incf	4,f
   798  1523  0804               	movf	4,w
   799  1524  067D               	xorwf	btemp+-1,w
   800  1525  1903               	btfsc	3,2
   801  1526  3400               	retlw	0
   802  1527  0AFF               	incf	btemp+1,f
   803  1528  1903               	btfsc	3,2
   804  1529  0AFE               	incf	btemp,f
   805  152A  2D1C               	goto	init_ram0
   806                           
   807                           	psect	clrtext
   808  14B8                     clear_ram0:	
   809                           ;	Called with FSR containing the base address, and
   810                           ;	W with the last address+1
   811                           
   812  14B8  0064               	clrwdt	;clear the watchdog before getting into this loop
   813  14B9                     clrloop0:	
   814  14B9  0180               	clrf	0	;clear RAM location pointed to by FSR
   815  14BA  0A84               	incf	4,f	;increment pointer
   816  14BB  0604               	xorwf	4,w	;XOR with final address
   817  14BC  1903               	btfsc	3,2	;have we reached the end yet?
   818  14BD  3400               	retlw	0	;all done for this memory range, return
   819  14BE  0604               	xorwf	4,w	;XOR again to restore value
   820  14BF  2CB9               	goto	clrloop0	;do the next byte
   821                           
   822                           	psect	cstackCOMMON
   823  0070                     __pcstackCOMMON:	
   824  0070                     ?_init_temp:	
   825  0070                     ??_init_temp:	
   826                           ; 1 bytes @ 0x0
   827                           
   828  0070                     ?_set_time:	
   829                           ; 1 bytes @ 0x0
   830                           
   831  0070                     ?_ds1302_init:	
   832                           ; 1 bytes @ 0x0
   833                           
   834  0070                     ?_init:	
   835                           ; 1 bytes @ 0x0
   836                           
   837  0070                     ??_init:	
   838                           ; 1 bytes @ 0x0
   839                           
   840  0070                     ?_lcd_init:	
   841                           ; 1 bytes @ 0x0
   842                           
   843  0070                     ?_initialise_buttons:	
   844                           ; 1 bytes @ 0x0
   845                           
   846  0070                     ??_initialise_buttons:	
   847                           ; 1 bytes @ 0x0
   848                           
   849  0070                     ?_get_temp:	
   850                           ; 1 bytes @ 0x0
   851                           
   852  0070                     ?_get_time:	
   853                           ; 1 bytes @ 0x0
   854                           
   855  0070                     ?_write_cmd:	
   856                           ; 1 bytes @ 0x0
   857                           
   858  0070                     ?_write_char:	
   859                           ; 1 bytes @ 0x0
   860                           
   861  0070                     ?_display_temp:	
   862                           ; 1 bytes @ 0x0
   863                           
   864  0070                     ?_display_date:	
   865                           ; 1 bytes @ 0x0
   866                           
   867  0070                     ?_display_clock:	
   868                           ; 1 bytes @ 0x0
   869                           
   870  0070                     ?_thermometer_threshhold_settings:	
   871                           ; 1 bytes @ 0x0
   872                           
   873  0070                     ?_date_settings:	
   874                           ; 1 bytes @ 0x0
   875                           
   876  0070                     ?_time_settings:	
   877                           ; 1 bytes @ 0x0
   878                           
   879  0070                     ?_set_beep_threshhold:	
   880                           ; 1 bytes @ 0x0
   881                           
   882  0070                     ?_reset_alarm:	
   883                           ; 1 bytes @ 0x0
   884                           
   885  0070                     ??_reset_alarm:	
   886                           ; 1 bytes @ 0x0
   887                           
   888  0070                     ?_delay_screen:	
   889                           ; 1 bytes @ 0x0
   890                           
   891  0070                     ??_delay_screen:	
   892                           ; 1 bytes @ 0x0
   893                           
   894  0070                     ?_delay_temp:	
   895                           ; 1 bytes @ 0x0
   896                           
   897  0070                     ?_delay2:	
   898                           ; 1 bytes @ 0x0
   899                           
   900  0070                     ??_delay2:	
   901                           ; 1 bytes @ 0x0
   902                           
   903  0070                     ?_time_write_1:	
   904                           ; 1 bytes @ 0x0
   905                           
   906  0070                     ??_time_write_1:	
   907                           ; 1 bytes @ 0x0
   908                           
   909  0070                     ?_time_read_1:	
   910                           ; 1 bytes @ 0x0
   911                           
   912  0070                     ??_time_read_1:	
   913                           ; 1 bytes @ 0x0
   914                           
   915  0070                     ?_button_delay:	
   916                           ; 1 bytes @ 0x0
   917                           
   918  0070                     ??_button_delay:	
   919                           ; 1 bytes @ 0x0
   920                           
   921  0070                     ?_time_date_hex_terminator:	
   922                           ; 1 bytes @ 0x0
   923                           
   924  0070                     ?_time_date_delimiter:	
   925                           ; 1 bytes @ 0x0
   926                           
   927  0070                     ?_main:	
   928                           ; 1 bytes @ 0x0
   929                           
   930  0070                     ?_reset_temp:	
   931                           ; 1 bytes @ 0x0
   932                           
   933  0070                     ?_write_byte:	
   934                           ; 1 bytes @ 0x0
   935                           
   936  0070                     ?_read_byte:	
   937                           ; 1 bytes @ 0x0
   938                           
   939  0070                     ?___awdiv:	
   940                           ; 1 bytes @ 0x0
   941                           
   942  0070                     ?___awmod:	
   943                           ; 2 bytes @ 0x0
   944                           
   945  0070                     ?___lwmod:	
   946                           ; 2 bytes @ 0x0
   947                           
   948  0070                     delay_temp@y:	
   949                           ; 2 bytes @ 0x0
   950                           
   951  0070                     time_date_delimiter@hex:	
   952                           ; 1 bytes @ 0x0
   953                           
   954  0070                     time_date_hex_terminator@limiter:	
   955                           ; 1 bytes @ 0x0
   956                           
   957  0070                     delay_screen@i:	
   958                           ; 1 bytes @ 0x0
   959                           
   960  0070                     delay2@i:	
   961                           ; 2 bytes @ 0x0
   962                           
   963  0070                     button_delay@i:	
   964                           ; 2 bytes @ 0x0
   965                           
   966  0070                     ___awdiv@divisor:	
   967                           ; 2 bytes @ 0x0
   968                           
   969  0070                     ___awmod@divisor:	
   970                           ; 2 bytes @ 0x0
   971                           
   972  0070                     ___lwmod@divisor:	
   973                           ; 2 bytes @ 0x0
   974                           
   975                           
   976                           ; 2 bytes @ 0x0
   977  0070                     	ds	1
   978  0071                     ??_delay_temp:	
   979  0071                     ??_time_date_hex_terminator:	
   980                           ; 1 bytes @ 0x1
   981                           
   982  0071                     time_date_delimiter@limiter:	
   983                           ; 1 bytes @ 0x1
   984                           
   985                           
   986                           ; 1 bytes @ 0x1
   987  0071                     	ds	1
   988  0072                     ??_write_cmd:	
   989  0072                     ??_write_char:	
   990                           ; 1 bytes @ 0x2
   991                           
   992  0072                     ??_set_beep_threshhold:	
   993                           ; 1 bytes @ 0x2
   994                           
   995  0072                     ??_time_date_delimiter:	
   996                           ; 1 bytes @ 0x2
   997                           
   998  0072                     write_char@x:	
   999                           ; 1 bytes @ 0x2
  1000                           
  1001  0072                     write_cmd@x:	
  1002                           ; 1 bytes @ 0x2
  1003                           
  1004  0072                     delay_temp@x:	
  1005                           ; 1 bytes @ 0x2
  1006                           
  1007  0072                     set_beep_threshhold@x:	
  1008                           ; 1 bytes @ 0x2
  1009                           
  1010  0072                     time_write_1@j:	
  1011                           ; 1 bytes @ 0x2
  1012                           
  1013  0072                     time_read_1@j:	
  1014                           ; 2 bytes @ 0x2
  1015                           
  1016  0072                     ___awdiv@dividend:	
  1017                           ; 2 bytes @ 0x2
  1018                           
  1019  0072                     ___awmod@dividend:	
  1020                           ; 2 bytes @ 0x2
  1021                           
  1022  0072                     ___lwmod@dividend:	
  1023                           ; 2 bytes @ 0x2
  1024                           
  1025                           
  1026                           ; 2 bytes @ 0x2
  1027  0072                     	ds	1
  1028  0073                     ??_lcd_init:	
  1029  0073                     ??_display_temp:	
  1030                           ; 1 bytes @ 0x3
  1031                           
  1032  0073                     ??_display_date:	
  1033                           ; 1 bytes @ 0x3
  1034                           
  1035  0073                     ??_display_clock:	
  1036                           ; 1 bytes @ 0x3
  1037                           
  1038  0073                     ?_set_lower_threshold:	
  1039                           ; 1 bytes @ 0x3
  1040                           
  1041  0073                     ?_set_upper_threshold:	
  1042                           ; 1 bytes @ 0x3
  1043                           
  1044  0073                     ?_display_day:	
  1045                           ; 1 bytes @ 0x3
  1046                           
  1047  0073                     delay_temp@z:	
  1048                           ; 1 bytes @ 0x3
  1049                           
  1050  0073                     time_date_hex_terminator@val:	
  1051                           ; 1 bytes @ 0x3
  1052                           
  1053  0073                     set_upper_threshold@upper_val:	
  1054                           ; 1 bytes @ 0x3
  1055                           
  1056  0073                     set_lower_threshold@upper_val:	
  1057                           ; 2 bytes @ 0x3
  1058                           
  1059  0073                     display_day@num:	
  1060                           ; 2 bytes @ 0x3
  1061                           
  1062                           
  1063                           ; 2 bytes @ 0x3
  1064  0073                     	ds	1
  1065  0074                     ??_reset_temp:	
  1066  0074                     ??_write_byte:	
  1067                           ; 1 bytes @ 0x4
  1068                           
  1069  0074                     ??_read_byte:	
  1070                           ; 1 bytes @ 0x4
  1071                           
  1072  0074                     ??___awdiv:	
  1073                           ; 1 bytes @ 0x4
  1074                           
  1075  0074                     ??___awmod:	
  1076                           ; 1 bytes @ 0x4
  1077                           
  1078  0074                     ??___lwmod:	
  1079                           ; 1 bytes @ 0x4
  1080                           
  1081  0074                     time_write_1@time_tx:	
  1082                           ; 1 bytes @ 0x4
  1083                           
  1084  0074                     time_read_1@time_rx:	
  1085                           ; 1 bytes @ 0x4
  1086                           
  1087  0074                     time_date_delimiter@val:	
  1088                           ; 1 bytes @ 0x4
  1089                           
  1090                           
  1091                           ; 1 bytes @ 0x4
  1092  0074                     	ds	1
  1093  0075                     ??_set_time:	
  1094  0075                     ??_ds1302_init:	
  1095                           ; 1 bytes @ 0x5
  1096                           
  1097  0075                     ??_get_time:	
  1098                           ; 1 bytes @ 0x5
  1099                           
  1100  0075                     ??_display_day:	
  1101                           ; 1 bytes @ 0x5
  1102                           
  1103  0075                     reset_temp@presence:	
  1104                           ; 1 bytes @ 0x5
  1105                           
  1106  0075                     read_byte@value:	
  1107                           ; 1 bytes @ 0x5
  1108                           
  1109  0075                     ___awdiv@counter:	
  1110                           ; 1 bytes @ 0x5
  1111                           
  1112  0075                     ___awmod@counter:	
  1113                           ; 1 bytes @ 0x5
  1114                           
  1115  0075                     ___lwmod@counter:	
  1116                           ; 1 bytes @ 0x5
  1117                           
  1118  0075                     set_time@i:	
  1119                           ; 1 bytes @ 0x5
  1120                           
  1121  0075                     display_clock@i:	
  1122                           ; 2 bytes @ 0x5
  1123                           
  1124  0075                     display_date@i:	
  1125                           ; 2 bytes @ 0x5
  1126                           
  1127  0075                     set_upper_threshold@lower_val:	
  1128                           ; 2 bytes @ 0x5
  1129                           
  1130  0075                     set_lower_threshold@lower_val:	
  1131                           ; 2 bytes @ 0x5
  1132                           
  1133                           
  1134                           ; 2 bytes @ 0x5
  1135  0075                     	ds	1
  1136  0076                     ?___lwdiv:	
  1137  0076                     write_byte@temp:	
  1138                           ; 2 bytes @ 0x6
  1139                           
  1140  0076                     read_byte@i:	
  1141                           ; 1 bytes @ 0x6
  1142                           
  1143  0076                     ___awdiv@sign:	
  1144                           ; 1 bytes @ 0x6
  1145                           
  1146  0076                     ___awmod@sign:	
  1147                           ; 1 bytes @ 0x6
  1148                           
  1149  0076                     get_time@i:	
  1150                           ; 1 bytes @ 0x6
  1151                           
  1152  0076                     ___lwdiv@divisor:	
  1153                           ; 2 bytes @ 0x6
  1154                           
  1155                           
  1156                           ; 2 bytes @ 0x6
  1157  0076                     	ds	1
  1158  0077                     ??_set_lower_threshold:	
  1159  0077                     ??_set_upper_threshold:	
  1160                           ; 1 bytes @ 0x7
  1161                           
  1162  0077                     ?_modulus_func:	
  1163                           ; 1 bytes @ 0x7
  1164                           
  1165  0077                     write_byte@val:	
  1166                           ; 2 bytes @ 0x7
  1167                           
  1168  0077                     modulus_func@x:	
  1169                           ; 1 bytes @ 0x7
  1170                           
  1171  0077                     ___awdiv@quotient:	
  1172                           ; 2 bytes @ 0x7
  1173                           
  1174                           
  1175                           ; 2 bytes @ 0x7
  1176  0077                     	ds	1
  1177  0078                     write_byte@i:	
  1178  0078                     ___lwdiv@dividend:	
  1179                           ; 1 bytes @ 0x8
  1180                           
  1181                           
  1182                           ; 2 bytes @ 0x8
  1183  0078                     	ds	1
  1184  0079                     modulus_func@y:	
  1185                           
  1186                           ; 2 bytes @ 0x9
  1187  0079                     	ds	1
  1188  007A                     ??___lwdiv:	
  1189                           
  1190                           ; 1 bytes @ 0xA
  1191  007A                     	ds	1
  1192  007B                     ??_modulus_func:	
  1193  007B                     ??_incrementor:	
  1194                           ; 1 bytes @ 0xB
  1195                           
  1196  007B                     ??_decrementor:	
  1197                           ; 1 bytes @ 0xB
  1198                           
  1199  007B                     ___lwdiv@quotient:	
  1200                           ; 1 bytes @ 0xB
  1201                           
  1202                           
  1203                           ; 2 bytes @ 0xB
  1204  007B                     	ds	2
  1205  007D                     ___lwdiv@counter:	
  1206                           
  1207                           ; 1 bytes @ 0xD
  1208  007D                     	ds	1
  1209  007E                     ??_main:	
  1210                           
  1211                           	psect	cstackBANK0
  1212  0055                     __pcstackBANK0:	
  1213                           ; 1 bytes @ 0xE
  1214                           
  1215  0055                     ??_get_temp:	
  1216  0055                     ?_incrementor:	
  1217                           ; 1 bytes @ 0x0
  1218                           
  1219  0055                     ?_decrementor:	
  1220                           ; 1 bytes @ 0x0
  1221                           
  1222  0055                     incrementor@upper_val:	
  1223                           ; 1 bytes @ 0x0
  1224                           
  1225  0055                     decrementor@lower_val:	
  1226                           ; 2 bytes @ 0x0
  1227                           
  1228                           
  1229                           ; 2 bytes @ 0x0
  1230  0055                     	ds	2
  1231  0057                     incrementor@lower_val:	
  1232  0057                     decrementor@upper_val:	
  1233                           ; 2 bytes @ 0x2
  1234                           
  1235                           
  1236                           ; 2 bytes @ 0x2
  1237  0057                     	ds	2
  1238  0059                     incrementor@z:	
  1239  0059                     decrementor@z:	
  1240                           ; 1 bytes @ 0x4
  1241                           
  1242                           
  1243                           ; 1 bytes @ 0x4
  1244  0059                     	ds	1
  1245  005A                     ??_thermometer_threshhold_settings:	
  1246  005A                     ??_date_settings:	
  1247                           ; 1 bytes @ 0x5
  1248                           
  1249  005A                     ??_time_settings:	
  1250                           ; 1 bytes @ 0x5
  1251                           
  1252                           
  1253                           ; 1 bytes @ 0x5
  1254  005A                     	ds	3
  1255  005D                     thermometer_threshhold_settings@i:	
  1256                           
  1257                           ; 2 bytes @ 0x8
  1258  005D                     	ds	2
  1259  005F                     main@i:	
  1260                           
  1261                           ; 2 bytes @ 0xA
  1262  005F                     	ds	2
  1263                           
  1264                           	psect	maintext
  1265  0C49                     __pmaintext:	
  1266 ;;
  1267 ;;Main: autosize = 0, tempsize = 0, incstack = 0, save=0
  1268 ;;
  1269 ;; *************** function _main *****************
  1270 ;; Defined at:
  1271 ;;		line 10 in file "mainLogic.c"
  1272 ;; Parameters:    Size  Location     Type
  1273 ;;		None
  1274 ;; Auto vars:     Size  Location     Type
  1275 ;;  i               2   10[BANK0 ] int 
  1276 ;; Return value:  Size  Location     Type
  1277 ;;                  1    wreg      void 
  1278 ;; Registers used:
  1279 ;;		wreg, fsr0l, fsr0h, status,2, status,0, btemp+1, pclath, cstack
  1280 ;; Tracked objects:
  1281 ;;		On entry : B00/0
  1282 ;;		On exit  : 0/0
  1283 ;;		Unchanged: 0/0
  1284 ;; Data sizes:     COMMON   BANK0   BANK1   BANK3   BANK2
  1285 ;;      Params:         0       0       0       0       0
  1286 ;;      Locals:         0       2       0       0       0
  1287 ;;      Temps:          0       0       0       0       0
  1288 ;;      Totals:         0       2       0       0       0
  1289 ;;Total ram usage:        2 bytes
  1290 ;; Hardware stack levels required when called:    4
  1291 ;; This function calls:
  1292 ;;		_date_settings
  1293 ;;		_display_clock
  1294 ;;		_display_date
  1295 ;;		_display_day
  1296 ;;		_display_temp
  1297 ;;		_ds1302_init
  1298 ;;		_get_temp
  1299 ;;		_get_time
  1300 ;;		_init
  1301 ;;		_init_temp
  1302 ;;		_initialise_buttons
  1303 ;;		_lcd_init
  1304 ;;		_modulus_func
  1305 ;;		_reset_alarm
  1306 ;;		_set_beep_threshhold
  1307 ;;		_set_lower_threshold
  1308 ;;		_set_time
  1309 ;;		_set_upper_threshold
  1310 ;;		_thermometer_threshhold_settings
  1311 ;;		_time_settings
  1312 ;;		_write_char
  1313 ;;		_write_cmd
  1314 ;; This function is called by:
  1315 ;;		Startup code after reset
  1316 ;; This function uses a non-reentrant model
  1317 ;;
  1318                           
  1319                           
  1320                           ;psect for function _main
  1321  0C49                     _main:	
  1322  0C49                     l3824:	
  1323                           ;incstack = 0
  1324                           ; Regs used in _main: [wreg-fsr0h+status,2+status,0+btemp+1+pclath+cstack]
  1325                           
  1326                           
  1327                           ;mainLogic.c: 11:     TRISB=0X02;
  1328  0C49  3002               	movlw	2
  1329  0C4A  1683               	bsf	3,5	;RP0=1, select bank1
  1330  0C4B  1303               	bcf	3,6	;RP1=0, select bank1
  1331  0C4C  0086               	movwf	6	;volatile
  1332  0C4D                     l3826:	
  1333                           
  1334                           ;mainLogic.c: 12:     init_temp();
  1335  0C4D  160A  118A  24B1  120A  158A  	fcall	_init_temp
  1336  0C52                     l3828:	
  1337                           
  1338                           ;mainLogic.c: 13:     set_time();
  1339  0C52  160A  118A  2697  120A  158A  	fcall	_set_time
  1340  0C57                     l3830:	
  1341                           
  1342                           ;mainLogic.c: 14:     ds1302_init();
  1343  0C57  160A  118A  252B  120A  158A  	fcall	_ds1302_init
  1344  0C5C                     l3832:	
  1345                           
  1346                           ;mainLogic.c: 16:     init();
  1347  0C5C  160A  118A  24C8  120A  158A  	fcall	_init
  1348  0C61                     l3834:	
  1349                           
  1350                           ;mainLogic.c: 17:     lcd_init();
  1351  0C61  160A  118A  25ED  120A  158A  	fcall	_lcd_init
  1352  0C66                     l3836:	
  1353                           
  1354                           ;mainLogic.c: 18:     init_temp();
  1355  0C66  160A  118A  24B1  120A  158A  	fcall	_init_temp
  1356  0C6B                     l3838:	
  1357                           
  1358                           ;mainLogic.c: 19:     initialise_buttons();
  1359  0C6B  160A  118A  2582  120A  158A  	fcall	_initialise_buttons
  1360  0C70                     l3840:	
  1361                           
  1362                           ;mainLogic.c: 24:     get_temp();
  1363  0C70  120A  158A  231B  120A  158A  	fcall	_get_temp
  1364  0C75                     l3842:	
  1365                           
  1366                           ;mainLogic.c: 25:     get_time();
  1367  0C75  160A  118A  26EF  120A  158A  	fcall	_get_time
  1368  0C7A                     l3844:	
  1369                           
  1370                           ;mainLogic.c: 26:     write_cmd(0x80);
  1371  0C7A  3080               	movlw	128
  1372  0C7B  160A  118A  25B1  120A  158A  	fcall	_write_cmd
  1373  0C80                     l3846:	
  1374                           
  1375                           ;mainLogic.c: 27:     write_char('T');
  1376  0C80  3054               	movlw	84
  1377  0C81  160A  118A  2598  120A  158A  	fcall	_write_char
  1378  0C86                     l3848:	
  1379                           
  1380                           ;mainLogic.c: 28:     write_char('e');
  1381  0C86  3065               	movlw	101
  1382  0C87  160A  118A  2598  120A  158A  	fcall	_write_char
  1383  0C8C                     l3850:	
  1384                           
  1385                           ;mainLogic.c: 29:     write_char('m');
  1386  0C8C  306D               	movlw	109
  1387  0C8D  160A  118A  2598  120A  158A  	fcall	_write_char
  1388  0C92                     l3852:	
  1389                           
  1390                           ;mainLogic.c: 30:     write_char('p');
  1391  0C92  3070               	movlw	112
  1392  0C93  160A  118A  2598  120A  158A  	fcall	_write_char
  1393  0C98                     l3854:	
  1394                           
  1395                           ;mainLogic.c: 31:     write_char(':');
  1396  0C98  303A               	movlw	58
  1397  0C99  160A  118A  2598  120A  158A  	fcall	_write_char
  1398  0C9E                     l3856:	
  1399                           
  1400                           ;mainLogic.c: 32:     display_temp();
  1401  0C9E  160A  118A  2640  120A  158A  	fcall	_display_temp
  1402  0CA3                     l3858:	
  1403                           
  1404                           ;mainLogic.c: 34:     write_cmd(0x90);
  1405  0CA3  3090               	movlw	144
  1406  0CA4  160A  118A  25B1  120A  158A  	fcall	_write_cmd
  1407  0CA9                     l3860:	
  1408                           
  1409                           ;mainLogic.c: 35:     write_char('D');
  1410  0CA9  3044               	movlw	68
  1411  0CAA  160A  118A  2598  120A  158A  	fcall	_write_char
  1412  0CAF                     l3862:	
  1413                           
  1414                           ;mainLogic.c: 36:     write_char('a');
  1415  0CAF  3061               	movlw	97
  1416  0CB0  160A  118A  2598  120A  158A  	fcall	_write_char
  1417  0CB5                     l3864:	
  1418                           
  1419                           ;mainLogic.c: 37:     write_char('t');
  1420  0CB5  3074               	movlw	116
  1421  0CB6  160A  118A  2598  120A  158A  	fcall	_write_char
  1422  0CBB                     l3866:	
  1423                           
  1424                           ;mainLogic.c: 38:     write_char('e');
  1425  0CBB  3065               	movlw	101
  1426  0CBC  160A  118A  2598  120A  158A  	fcall	_write_char
  1427  0CC1                     l3868:	
  1428                           
  1429                           ;mainLogic.c: 39:     write_char(':');
  1430  0CC1  303A               	movlw	58
  1431  0CC2  160A  118A  2598  120A  158A  	fcall	_write_char
  1432  0CC7                     l3870:	
  1433                           
  1434                           ;mainLogic.c: 40:     write_char(' ');
  1435  0CC7  3020               	movlw	32
  1436  0CC8  160A  118A  2598  120A  158A  	fcall	_write_char
  1437  0CCD                     l3872:	
  1438                           
  1439                           ;mainLogic.c: 42:     display_date();
  1440  0CCD  120A  158A  2275  120A  158A  	fcall	_display_date
  1441  0CD2                     l3874:	
  1442                           
  1443                           ;mainLogic.c: 44:     write_cmd(0x88);
  1444  0CD2  3088               	movlw	136
  1445  0CD3  160A  118A  25B1  120A  158A  	fcall	_write_cmd
  1446  0CD8                     l3876:	
  1447                           
  1448                           ;mainLogic.c: 45:     write_char('T');
  1449  0CD8  3054               	movlw	84
  1450  0CD9  160A  118A  2598  120A  158A  	fcall	_write_char
  1451  0CDE                     l3878:	
  1452                           
  1453                           ;mainLogic.c: 46:     write_char('i');
  1454  0CDE  3069               	movlw	105
  1455  0CDF  160A  118A  2598  120A  158A  	fcall	_write_char
  1456  0CE4                     l3880:	
  1457                           
  1458                           ;mainLogic.c: 47:     write_char('m');
  1459  0CE4  306D               	movlw	109
  1460  0CE5  160A  118A  2598  120A  158A  	fcall	_write_char
  1461  0CEA                     l3882:	
  1462                           
  1463                           ;mainLogic.c: 48:     write_char('e');
  1464  0CEA  3065               	movlw	101
  1465  0CEB  160A  118A  2598  120A  158A  	fcall	_write_char
  1466  0CF0                     l3884:	
  1467                           
  1468                           ;mainLogic.c: 49:     write_char(':');
  1469  0CF0  303A               	movlw	58
  1470  0CF1  160A  118A  2598  120A  158A  	fcall	_write_char
  1471  0CF6                     l3886:	
  1472                           
  1473                           ;mainLogic.c: 50:     display_clock();
  1474  0CF6  120A  158A  21CF  120A  158A  	fcall	_display_clock
  1475  0CFB                     l3888:	
  1476                           
  1477                           ;mainLogic.c: 51:     thermometer_threshhold_settings();
  1478  0CFB  120A  158A  2578  120A  158A  	fcall	_thermometer_threshhold_settings
  1479  0D00                     l3890:	
  1480                           
  1481                           ;mainLogic.c: 52:     date_settings();
  1482  0D00  120A  118A  23C3  120A  158A  	fcall	_date_settings
  1483  0D05                     l3892:	
  1484                           
  1485                           ;mainLogic.c: 53:     time_settings();
  1486  0D05  120A  118A  20D5  120A  158A  	fcall	_time_settings
  1487  0D0A                     l3894:	
  1488                           
  1489                           ;mainLogic.c: 54:     write_cmd(0x98);
  1490  0D0A  3098               	movlw	152
  1491  0D0B  160A  118A  25B1  120A  158A  	fcall	_write_cmd
  1492  0D10                     l3896:	
  1493                           
  1494                           ;mainLogic.c: 55:     set_lower_threshold(2,7);
  1495  0D10  3002               	movlw	2
  1496  0D11  00F3               	movwf	set_lower_threshold@upper_val
  1497  0D12  3000               	movlw	0
  1498  0D13  00F4               	movwf	set_lower_threshold@upper_val+1
  1499  0D14  3007               	movlw	7
  1500  0D15  00F5               	movwf	set_lower_threshold@lower_val
  1501  0D16  3000               	movlw	0
  1502  0D17  00F6               	movwf	set_lower_threshold@lower_val+1
  1503  0D18  120A  158A  20C3  120A  158A  	fcall	_set_lower_threshold
  1504  0D1D                     l3898:	
  1505                           
  1506                           ;mainLogic.c: 56:     set_upper_threshold(2,7);
  1507  0D1D  3002               	movlw	2
  1508  0D1E  00F3               	movwf	set_upper_threshold@upper_val
  1509  0D1F  3000               	movlw	0
  1510  0D20  00F4               	movwf	set_upper_threshold@upper_val+1
  1511  0D21  3007               	movlw	7
  1512  0D22  00F5               	movwf	set_upper_threshold@lower_val
  1513  0D23  3000               	movlw	0
  1514  0D24  00F6               	movwf	set_upper_threshold@lower_val+1
  1515  0D25  120A  158A  2041  120A  158A  	fcall	_set_upper_threshold
  1516  0D2A                     l3900:	
  1517                           
  1518                           ;mainLogic.c: 57:     set_beep_threshhold(buzzer_watcher);
  1519  0D2A  1283               	bcf	3,5	;RP0=0, select bank0
  1520  0D2B  1303               	bcf	3,6	;RP1=0, select bank0
  1521  0D2C  0843               	movf	_buzzer_watcher,w
  1522  0D2D  160A  118A  25CA  120A  158A  	fcall	_set_beep_threshhold
  1523  0D32                     l3902:	
  1524                           
  1525                           ;mainLogic.c: 58:     reset_alarm();
  1526  0D32  160A  118A  24D1  120A  158A  	fcall	_reset_alarm
  1527  0D37                     l3904:	
  1528                           
  1529                           ;mainLogic.c: 59:     for(int i = 0; i < 7; i++)
  1530  0D37  1283               	bcf	3,5	;RP0=0, select bank0
  1531  0D38  1303               	bcf	3,6	;RP1=0, select bank0
  1532  0D39  01DF               	clrf	main@i
  1533  0D3A  01E0               	clrf	main@i+1
  1534  0D3B                     l3910:	
  1535                           
  1536                           ;mainLogic.c: 60:     write_char(' ');
  1537  0D3B  3020               	movlw	32
  1538  0D3C  160A  118A  2598  120A  158A  	fcall	_write_char
  1539  0D41                     l3912:	
  1540  0D41  3001               	movlw	1
  1541  0D42  1283               	bcf	3,5	;RP0=0, select bank0
  1542  0D43  1303               	bcf	3,6	;RP1=0, select bank0
  1543  0D44  07DF               	addwf	main@i,f
  1544  0D45  1803               	skipnc
  1545  0D46  0AE0               	incf	main@i+1,f
  1546  0D47  3000               	movlw	0
  1547  0D48  07E0               	addwf	main@i+1,f
  1548  0D49                     l3914:	
  1549  0D49  0860               	movf	main@i+1,w
  1550  0D4A  3A80               	xorlw	128
  1551  0D4B  00FF               	movwf	btemp+1
  1552  0D4C  3080               	movlw	128
  1553  0D4D  027F               	subwf	btemp+1,w
  1554  0D4E  1D03               	skipz
  1555  0D4F  2D52               	goto	u2525
  1556  0D50  3007               	movlw	7
  1557  0D51  025F               	subwf	main@i,w
  1558  0D52                     u2525:	
  1559  0D52  1C03               	skipc
  1560  0D53  2D55               	goto	u2521
  1561  0D54  2D56               	goto	u2520
  1562  0D55                     u2521:	
  1563  0D55  2D3B               	goto	l3910
  1564  0D56                     u2520:	
  1565  0D56                     l3916:	
  1566                           
  1567                           ;mainLogic.c: 61:     day_counter = modulus_func(day_low,8);
  1568  0D56  1283               	bcf	3,5	;RP0=0, select bank0
  1569  0D57  1303               	bcf	3,6	;RP1=0, select bank0
  1570  0D58  0832               	movf	_day_low+1,w
  1571  0D59  00F8               	movwf	modulus_func@x+1
  1572  0D5A  0831               	movf	_day_low,w
  1573  0D5B  00F7               	movwf	modulus_func@x
  1574  0D5C  3008               	movlw	8
  1575  0D5D  00F9               	movwf	modulus_func@y
  1576  0D5E  3000               	movlw	0
  1577  0D5F  00FA               	movwf	modulus_func@y+1
  1578  0D60  160A  118A  24E2  120A  158A  	fcall	_modulus_func
  1579  0D65  0878               	movf	?_modulus_func+1,w
  1580  0D66  1283               	bcf	3,5	;RP0=0, select bank0
  1581  0D67  1303               	bcf	3,6	;RP1=0, select bank0
  1582  0D68  00A8               	movwf	_day_counter+1
  1583  0D69  0877               	movf	?_modulus_func,w
  1584  0D6A  00A7               	movwf	_day_counter
  1585  0D6B                     l3918:	
  1586                           
  1587                           ;mainLogic.c: 62:     display_day(day_counter);
  1588  0D6B  0828               	movf	_day_counter+1,w
  1589  0D6C  00F4               	movwf	display_day@num+1
  1590  0D6D  0827               	movf	_day_counter,w
  1591  0D6E  00F3               	movwf	display_day@num
  1592  0D6F  120A  118A  2020  120A  158A  	fcall	_display_day
  1593  0D74  2C70               	goto	l3840
  1594  0D75  120A  118A  2800   	ljmp	start
  1595  0D78                     __end_of_main:	
  1596                           
  1597                           	psect	text1
  1598  00D5                     __ptext1:	
  1599 ;; *************** function _time_settings *****************
  1600 ;; Defined at:
  1601 ;;		line 166 in file "Button_src.c"
  1602 ;; Parameters:    Size  Location     Type
  1603 ;;		None
  1604 ;; Auto vars:     Size  Location     Type
  1605 ;;		None
  1606 ;; Return value:  Size  Location     Type
  1607 ;;                  1    wreg      void 
  1608 ;; Registers used:
  1609 ;;		wreg, fsr0l, fsr0h, status,2, status,0, btemp+1, pclath, cstack
  1610 ;; Tracked objects:
  1611 ;;		On entry : 0/0
  1612 ;;		On exit  : 0/0
  1613 ;;		Unchanged: 0/0
  1614 ;; Data sizes:     COMMON   BANK0   BANK1   BANK3   BANK2
  1615 ;;      Params:         0       0       0       0       0
  1616 ;;      Locals:         0       0       0       0       0
  1617 ;;      Temps:          0       3       0       0       0
  1618 ;;      Totals:         0       3       0       0       0
  1619 ;;Total ram usage:        3 bytes
  1620 ;; Hardware stack levels used:    1
  1621 ;; Hardware stack levels required when called:    3
  1622 ;; This function calls:
  1623 ;;		_button_delay
  1624 ;;		_incrementor
  1625 ;;		_modulus_func
  1626 ;;		_set_time
  1627 ;;		_time_date_delimiter
  1628 ;;		_time_date_hex_terminator
  1629 ;;		_write_char
  1630 ;;		_write_cmd
  1631 ;; This function is called by:
  1632 ;;		_main
  1633 ;; This function uses a non-reentrant model
  1634 ;;
  1635                           
  1636                           
  1637                           ;psect for function _time_settings
  1638  00D5                     _time_settings:	
  1639  00D5                     l3580:	
  1640                           ;incstack = 0
  1641                           ; Regs used in _time_settings: [wreg-fsr0h+status,2+status,0+btemp+1+pclath+cstack]
  1642                           
  1643                           
  1644                           ;Button_src.c: 167:  RC0 = 1;
  1645  00D5  1283               	bcf	3,5	;RP0=0, select bank0
  1646  00D6  1303               	bcf	3,6	;RP1=0, select bank0
  1647  00D7  1407               	bsf	7,0	;volatile
  1648                           
  1649                           ;Button_src.c: 168:  RC1 = 1;
  1650  00D8  1487               	bsf	7,1	;volatile
  1651                           
  1652                           ;Button_src.c: 169:  RC2 = 0;
  1653  00D9  1107               	bcf	7,2	;volatile
  1654                           
  1655                           ;Button_src.c: 170:  RC3 = 1;
  1656  00DA  1587               	bsf	7,3	;volatile
  1657                           
  1658                           ;Button_src.c: 171:   if (RC4 == 0){
  1659  00DB  1A07               	btfsc	7,4	;volatile
  1660  00DC  28DE               	goto	u2211
  1661  00DD  28DF               	goto	u2210
  1662  00DE                     u2211:	
  1663  00DE  2BC2               	goto	l542
  1664  00DF                     u2210:	
  1665  00DF                     l3582:	
  1666                           
  1667                           ;Button_src.c: 172:       write_cmd(0x1);
  1668  00DF  3001               	movlw	1
  1669  00E0  160A  118A  25B1  120A  118A  	fcall	_write_cmd
  1670  00E5                     l535:	
  1671                           ;Button_src.c: 173:       for(;;){
  1672                           
  1673                           
  1674                           ;Button_src.c: 174:             write_cmd(0x80);
  1675  00E5  3080               	movlw	128
  1676  00E6  160A  118A  25B1  120A  118A  	fcall	_write_cmd
  1677                           
  1678                           ;Button_src.c: 175:             write_char('T');
  1679  00EB  3054               	movlw	84
  1680  00EC  160A  118A  2598  120A  118A  	fcall	_write_char
  1681                           
  1682                           ;Button_src.c: 176:             write_char('i');
  1683  00F1  3069               	movlw	105
  1684  00F2  160A  118A  2598  120A  118A  	fcall	_write_char
  1685                           
  1686                           ;Button_src.c: 177:             write_char('m');
  1687  00F7  306D               	movlw	109
  1688  00F8  160A  118A  2598  120A  118A  	fcall	_write_char
  1689                           
  1690                           ;Button_src.c: 178:             write_char('e');
  1691  00FD  3065               	movlw	101
  1692  00FE  160A  118A  2598  120A  118A  	fcall	_write_char
  1693                           
  1694                           ;Button_src.c: 179:             write_char('_');
  1695  0103  305F               	movlw	95
  1696  0104  160A  118A  2598  120A  118A  	fcall	_write_char
  1697                           
  1698                           ;Button_src.c: 180:             write_char('S');
  1699  0109  3053               	movlw	83
  1700  010A  160A  118A  2598  120A  118A  	fcall	_write_char
  1701                           
  1702                           ;Button_src.c: 181:             write_char('e');
  1703  010F  3065               	movlw	101
  1704  0110  160A  118A  2598  120A  118A  	fcall	_write_char
  1705                           
  1706                           ;Button_src.c: 182:             write_char('t');
  1707  0115  3074               	movlw	116
  1708  0116  160A  118A  2598  120A  118A  	fcall	_write_char
  1709                           
  1710                           ;Button_src.c: 183:             write_char('t');
  1711  011B  3074               	movlw	116
  1712  011C  160A  118A  2598  120A  118A  	fcall	_write_char
  1713                           
  1714                           ;Button_src.c: 184:             write_char('i');
  1715  0121  3069               	movlw	105
  1716  0122  160A  118A  2598  120A  118A  	fcall	_write_char
  1717                           
  1718                           ;Button_src.c: 185:             write_char('n');
  1719  0127  306E               	movlw	110
  1720  0128  160A  118A  2598  120A  118A  	fcall	_write_char
  1721                           
  1722                           ;Button_src.c: 186:             write_char('g');
  1723  012D  3067               	movlw	103
  1724  012E  160A  118A  2598  120A  118A  	fcall	_write_char
  1725                           
  1726                           ;Button_src.c: 187:             write_char('s');
  1727  0133  3073               	movlw	115
  1728  0134  160A  118A  2598  120A  118A  	fcall	_write_char
  1729  0139                     l3584:	
  1730                           
  1731                           ;Button_src.c: 189:             RC0 = 1;
  1732  0139  1283               	bcf	3,5	;RP0=0, select bank0
  1733  013A  1303               	bcf	3,6	;RP1=0, select bank0
  1734  013B  1407               	bsf	7,0	;volatile
  1735  013C                     l3586:	
  1736                           
  1737                           ;Button_src.c: 190:             RC1 = 0;
  1738  013C  1087               	bcf	7,1	;volatile
  1739  013D                     l3588:	
  1740                           
  1741                           ;Button_src.c: 191:             RC2 = 1;
  1742  013D  1507               	bsf	7,2	;volatile
  1743  013E                     l3590:	
  1744                           
  1745                           ;Button_src.c: 192:             RC3 = 1;
  1746  013E  1587               	bsf	7,3	;volatile
  1747  013F                     l3592:	
  1748                           
  1749                           ;Button_src.c: 194:             if(RC7 == 0 && b =='x'){
  1750  013F  1B87               	btfsc	7,7	;volatile
  1751  0140  2942               	goto	u2221
  1752  0141  2943               	goto	u2220
  1753  0142                     u2221:	
  1754  0142  29A5               	goto	l3614
  1755  0143                     u2220:	
  1756  0143                     l3594:	
  1757  0143  3078               	movlw	120
  1758  0144  0649               	xorwf	_b,w
  1759  0145  1D03               	btfss	3,2
  1760  0146  2948               	goto	u2231
  1761  0147  2949               	goto	u2230
  1762  0148                     u2231:	
  1763  0148  29A5               	goto	l3614
  1764  0149                     u2230:	
  1765  0149                     l3596:	
  1766                           
  1767                           ;Button_src.c: 195:                     a++;
  1768  0149  3001               	movlw	1
  1769  014A  00DA               	movwf	??_time_settings
  1770  014B  085A               	movf	??_time_settings,w
  1771  014C  07CA               	addwf	_a,f
  1772  014D                     l3598:	
  1773                           
  1774                           ;Button_src.c: 196:                     x++ ;
  1775  014D  3001               	movlw	1
  1776  014E  07B7               	addwf	_x,f
  1777  014F  1803               	skipnc
  1778  0150  0AB8               	incf	_x+1,f
  1779  0151  3000               	movlw	0
  1780  0152  07B8               	addwf	_x+1,f
  1781  0153                     l3600:	
  1782                           
  1783                           ;Button_src.c: 197:                     x = modulus_func(x,10);
  1784  0153  0838               	movf	_x+1,w
  1785  0154  00F8               	movwf	modulus_func@x+1
  1786  0155  0837               	movf	_x,w
  1787  0156  00F7               	movwf	modulus_func@x
  1788  0157  300A               	movlw	10
  1789  0158  00F9               	movwf	modulus_func@y
  1790  0159  3000               	movlw	0
  1791  015A  00FA               	movwf	modulus_func@y+1
  1792  015B  160A  118A  24E2  120A  118A  	fcall	_modulus_func
  1793  0160  0878               	movf	?_modulus_func+1,w
  1794  0161  1283               	bcf	3,5	;RP0=0, select bank0
  1795  0162  1303               	bcf	3,6	;RP1=0, select bank0
  1796  0163  00B8               	movwf	_x+1
  1797  0164  0877               	movf	?_modulus_func,w
  1798  0165  00B7               	movwf	_x
  1799  0166                     l3602:	
  1800                           
  1801                           ;Button_src.c: 198:                     y = incrementor(y,x,'9');
  1802  0166  0836               	movf	_y+1,w
  1803  0167  00D6               	movwf	incrementor@upper_val+1
  1804  0168  0835               	movf	_y,w
  1805  0169  00D5               	movwf	incrementor@upper_val
  1806  016A  0838               	movf	_x+1,w
  1807  016B  00D8               	movwf	incrementor@lower_val+1
  1808  016C  0837               	movf	_x,w
  1809  016D  00D7               	movwf	incrementor@lower_val
  1810  016E  3039               	movlw	57
  1811  016F  00DA               	movwf	??_time_settings
  1812  0170  085A               	movf	??_time_settings,w
  1813  0171  00D9               	movwf	incrementor@z
  1814  0172  160A  118A  266B  120A  118A  	fcall	_incrementor
  1815  0177  1283               	bcf	3,5	;RP0=0, select bank0
  1816  0178  1303               	bcf	3,6	;RP1=0, select bank0
  1817  0179  00DB               	movwf	??_time_settings+1
  1818  017A  01DC               	clrf	??_time_settings+2
  1819  017B  085B               	movf	??_time_settings+1,w
  1820  017C  00B5               	movwf	_y
  1821  017D  085C               	movf	??_time_settings+2,w
  1822  017E  00B6               	movwf	_y+1
  1823  017F                     l3604:	
  1824                           
  1825                           ;Button_src.c: 200:                     a = time_date_hex_terminator(a,'T');
  1826  017F  3054               	movlw	84
  1827  0180  00DA               	movwf	??_time_settings
  1828  0181  085A               	movf	??_time_settings,w
  1829  0182  00F0               	movwf	time_date_hex_terminator@limiter
  1830  0183  084A               	movf	_a,w
  1831  0184  160A  118A  24F4  120A  118A  	fcall	_time_date_hex_terminator
  1832  0189  1283               	bcf	3,5	;RP0=0, select bank0
  1833  018A  1303               	bcf	3,6	;RP1=0, select bank0
  1834  018B  00DB               	movwf	??_time_settings+1
  1835  018C  085B               	movf	??_time_settings+1,w
  1836  018D  00CA               	movwf	_a
  1837  018E                     l3606:	
  1838                           
  1839                           ;Button_src.c: 201:                     if(y == 2 && x == 4){
  1840  018E  3002               	movlw	2
  1841  018F  0635               	xorwf	_y,w
  1842  0190  0436               	iorwf	_y+1,w
  1843  0191  1D03               	btfss	3,2
  1844  0192  2994               	goto	u2241
  1845  0193  2995               	goto	u2240
  1846  0194                     u2241:	
  1847  0194  29A0               	goto	l3612
  1848  0195                     u2240:	
  1849  0195                     l3608:	
  1850  0195  3004               	movlw	4
  1851  0196  0637               	xorwf	_x,w
  1852  0197  0438               	iorwf	_x+1,w
  1853  0198  1D03               	btfss	3,2
  1854  0199  299B               	goto	u2251
  1855  019A  299C               	goto	u2250
  1856  019B                     u2251:	
  1857  019B  29A0               	goto	l3612
  1858  019C                     u2250:	
  1859  019C                     l3610:	
  1860                           
  1861                           ;Button_src.c: 202:                         x = 0;
  1862  019C  01B7               	clrf	_x
  1863  019D  01B8               	clrf	_x+1
  1864                           
  1865                           ;Button_src.c: 203:                         y = 0;
  1866  019E  01B5               	clrf	_y
  1867  019F  01B6               	clrf	_y+1
  1868  01A0                     l3612:	
  1869                           
  1870                           ;Button_src.c: 205:                     button_delay();
  1871  01A0  160A  118A  2540  120A  118A  	fcall	_button_delay
  1872  01A5                     l3614:	
  1873                           
  1874                           ;Button_src.c: 207:             if(RC7==0 && b == 'y'){
  1875  01A5  1283               	bcf	3,5	;RP0=0, select bank0
  1876  01A6  1303               	bcf	3,6	;RP1=0, select bank0
  1877  01A7  1B87               	btfsc	7,7	;volatile
  1878  01A8  29AA               	goto	u2261
  1879  01A9  29AB               	goto	u2260
  1880  01AA                     u2261:	
  1881  01AA  29FE               	goto	l3636
  1882  01AB                     u2260:	
  1883  01AB                     l3616:	
  1884  01AB  3079               	movlw	121
  1885  01AC  0649               	xorwf	_b,w
  1886  01AD  1D03               	btfss	3,2
  1887  01AE  29B0               	goto	u2271
  1888  01AF  29B1               	goto	u2270
  1889  01B0                     u2271:	
  1890  01B0  29FE               	goto	l3636
  1891  01B1                     u2270:	
  1892  01B1                     l3618:	
  1893                           
  1894                           ;Button_src.c: 208:                     c++;
  1895  01B1  3001               	movlw	1
  1896  01B2  00DA               	movwf	??_time_settings
  1897  01B3  085A               	movf	??_time_settings,w
  1898  01B4  07C8               	addwf	_c,f
  1899  01B5                     l3620:	
  1900                           
  1901                           ;Button_src.c: 209:                     t++;
  1902  01B5  3001               	movlw	1
  1903  01B6  07BB               	addwf	_t,f
  1904  01B7  1803               	skipnc
  1905  01B8  0ABC               	incf	_t+1,f
  1906  01B9  3000               	movlw	0
  1907  01BA  07BC               	addwf	_t+1,f
  1908  01BB                     l3622:	
  1909                           
  1910                           ;Button_src.c: 210:                     t = modulus_func(t,10);
  1911  01BB  083C               	movf	_t+1,w
  1912  01BC  00F8               	movwf	modulus_func@x+1
  1913  01BD  083B               	movf	_t,w
  1914  01BE  00F7               	movwf	modulus_func@x
  1915  01BF  300A               	movlw	10
  1916  01C0  00F9               	movwf	modulus_func@y
  1917  01C1  3000               	movlw	0
  1918  01C2  00FA               	movwf	modulus_func@y+1
  1919  01C3  160A  118A  24E2  120A  118A  	fcall	_modulus_func
  1920  01C8  0878               	movf	?_modulus_func+1,w
  1921  01C9  1283               	bcf	3,5	;RP0=0, select bank0
  1922  01CA  1303               	bcf	3,6	;RP1=0, select bank0
  1923  01CB  00BC               	movwf	_t+1
  1924  01CC  0877               	movf	?_modulus_func,w
  1925  01CD  00BB               	movwf	_t
  1926  01CE                     l3624:	
  1927                           
  1928                           ;Button_src.c: 211:                     w = incrementor(w,t,'9');
  1929  01CE  083A               	movf	_w+1,w
  1930  01CF  00D6               	movwf	incrementor@upper_val+1
  1931  01D0  0839               	movf	_w,w
  1932  01D1  00D5               	movwf	incrementor@upper_val
  1933  01D2  083C               	movf	_t+1,w
  1934  01D3  00D8               	movwf	incrementor@lower_val+1
  1935  01D4  083B               	movf	_t,w
  1936  01D5  00D7               	movwf	incrementor@lower_val
  1937  01D6  3039               	movlw	57
  1938  01D7  00DA               	movwf	??_time_settings
  1939  01D8  085A               	movf	??_time_settings,w
  1940  01D9  00D9               	movwf	incrementor@z
  1941  01DA  160A  118A  266B  120A  118A  	fcall	_incrementor
  1942  01DF  1283               	bcf	3,5	;RP0=0, select bank0
  1943  01E0  1303               	bcf	3,6	;RP1=0, select bank0
  1944  01E1  00DB               	movwf	??_time_settings+1
  1945  01E2  01DC               	clrf	??_time_settings+2
  1946  01E3  085B               	movf	??_time_settings+1,w
  1947  01E4  00B9               	movwf	_w
  1948  01E5  085C               	movf	??_time_settings+2,w
  1949  01E6  00BA               	movwf	_w+1
  1950  01E7                     l3626:	
  1951                           
  1952                           ;Button_src.c: 212:                     if(c == (0x59 + 1)){
  1953  01E7  305A               	movlw	90
  1954  01E8  0648               	xorwf	_c,w
  1955  01E9  1D03               	btfss	3,2
  1956  01EA  29EC               	goto	u2281
  1957  01EB  29ED               	goto	u2280
  1958  01EC                     u2281:	
  1959  01EC  29EE               	goto	l3630
  1960  01ED                     u2280:	
  1961  01ED                     l3628:	
  1962                           
  1963                           ;Button_src.c: 213:                         c = 0x00;
  1964  01ED  01C8               	clrf	_c
  1965  01EE                     l3630:	
  1966                           
  1967                           ;Button_src.c: 215:                     if(w == 6){
  1968  01EE  3006               	movlw	6
  1969  01EF  0639               	xorwf	_w,w
  1970  01F0  043A               	iorwf	_w+1,w
  1971  01F1  1D03               	btfss	3,2
  1972  01F2  29F4               	goto	u2291
  1973  01F3  29F5               	goto	u2290
  1974  01F4                     u2291:	
  1975  01F4  29F9               	goto	l3634
  1976  01F5                     u2290:	
  1977  01F5                     l3632:	
  1978                           
  1979                           ;Button_src.c: 216:                         w = 0;
  1980  01F5  01B9               	clrf	_w
  1981  01F6  01BA               	clrf	_w+1
  1982                           
  1983                           ;Button_src.c: 217:                         t = 0;
  1984  01F7  01BB               	clrf	_t
  1985  01F8  01BC               	clrf	_t+1
  1986  01F9                     l3634:	
  1987                           
  1988                           ;Button_src.c: 219:                     button_delay();
  1989  01F9  160A  118A  2540  120A  118A  	fcall	_button_delay
  1990  01FE                     l3636:	
  1991                           
  1992                           ;Button_src.c: 222:              write_cmd(0x88);
  1993  01FE  3088               	movlw	136
  1994  01FF  160A  118A  25B1  120A  118A  	fcall	_write_cmd
  1995  0204                     l3638:	
  1996                           
  1997                           ;Button_src.c: 223:                     table[2] = a;
  1998  0204  1283               	bcf	3,5	;RP0=0, select bank0
  1999  0205  1303               	bcf	3,6	;RP1=0, select bank0
  2000  0206  084A               	movf	_a,w
  2001  0207  00DA               	movwf	??_time_settings
  2002  0208  085A               	movf	??_time_settings,w
  2003  0209  00E3               	movwf	_table+2
  2004  020A                     l3640:	
  2005                           
  2006                           ;Button_src.c: 224:                     table[1] = c;
  2007  020A  0848               	movf	_c,w
  2008  020B  00DA               	movwf	??_time_settings
  2009  020C  085A               	movf	??_time_settings,w
  2010  020D  00E2               	movwf	_table+1
  2011  020E                     l3642:	
  2012                           
  2013                           ;Button_src.c: 229:                     a = time_date_delimiter(a,0x11,'9');
  2014  020E  3011               	movlw	17
  2015  020F  00DA               	movwf	??_time_settings
  2016  0210  085A               	movf	??_time_settings,w
  2017  0211  00F0               	movwf	time_date_delimiter@hex
  2018  0212  3039               	movlw	57
  2019  0213  00DB               	movwf	??_time_settings+1
  2020  0214  085B               	movf	??_time_settings+1,w
  2021  0215  00F1               	movwf	time_date_delimiter@limiter
  2022  0216  084A               	movf	_a,w
  2023  0217  120A  118A  2005  120A  118A  	fcall	_time_date_delimiter
  2024  021C  1283               	bcf	3,5	;RP0=0, select bank0
  2025  021D  1303               	bcf	3,6	;RP1=0, select bank0
  2026  021E  00DC               	movwf	??_time_settings+2
  2027  021F  085C               	movf	??_time_settings+2,w
  2028  0220  00CA               	movwf	_a
  2029  0221                     l3644:	
  2030                           
  2031                           ;Button_src.c: 230:                     a = time_date_delimiter(a,0x21,'J');
  2032  0221  3021               	movlw	33
  2033  0222  00DA               	movwf	??_time_settings
  2034  0223  085A               	movf	??_time_settings,w
  2035  0224  00F0               	movwf	time_date_delimiter@hex
  2036  0225  304A               	movlw	74
  2037  0226  00DB               	movwf	??_time_settings+1
  2038  0227  085B               	movf	??_time_settings+1,w
  2039  0228  00F1               	movwf	time_date_delimiter@limiter
  2040  0229  084A               	movf	_a,w
  2041  022A  120A  118A  2005  120A  118A  	fcall	_time_date_delimiter
  2042  022F  1283               	bcf	3,5	;RP0=0, select bank0
  2043  0230  1303               	bcf	3,6	;RP1=0, select bank0
  2044  0231  00DC               	movwf	??_time_settings+2
  2045  0232  085C               	movf	??_time_settings+2,w
  2046  0233  00CA               	movwf	_a
  2047  0234                     l3646:	
  2048                           
  2049                           ;Button_src.c: 232:                     c = time_date_delimiter(c,0x11,'9');
  2050  0234  3011               	movlw	17
  2051  0235  00DA               	movwf	??_time_settings
  2052  0236  085A               	movf	??_time_settings,w
  2053  0237  00F0               	movwf	time_date_delimiter@hex
  2054  0238  3039               	movlw	57
  2055  0239  00DB               	movwf	??_time_settings+1
  2056  023A  085B               	movf	??_time_settings+1,w
  2057  023B  00F1               	movwf	time_date_delimiter@limiter
  2058  023C  0848               	movf	_c,w
  2059  023D  120A  118A  2005  120A  118A  	fcall	_time_date_delimiter
  2060  0242  1283               	bcf	3,5	;RP0=0, select bank0
  2061  0243  1303               	bcf	3,6	;RP1=0, select bank0
  2062  0244  00DC               	movwf	??_time_settings+2
  2063  0245  085C               	movf	??_time_settings+2,w
  2064  0246  00C8               	movwf	_c
  2065  0247                     l3648:	
  2066                           
  2067                           ;Button_src.c: 233:                     c = time_date_delimiter(c,0x21,'J');
  2068  0247  3021               	movlw	33
  2069  0248  00DA               	movwf	??_time_settings
  2070  0249  085A               	movf	??_time_settings,w
  2071  024A  00F0               	movwf	time_date_delimiter@hex
  2072  024B  304A               	movlw	74
  2073  024C  00DB               	movwf	??_time_settings+1
  2074  024D  085B               	movf	??_time_settings+1,w
  2075  024E  00F1               	movwf	time_date_delimiter@limiter
  2076  024F  0848               	movf	_c,w
  2077  0250  120A  118A  2005  120A  118A  	fcall	_time_date_delimiter
  2078  0255  1283               	bcf	3,5	;RP0=0, select bank0
  2079  0256  1303               	bcf	3,6	;RP1=0, select bank0
  2080  0257  00DC               	movwf	??_time_settings+2
  2081  0258  085C               	movf	??_time_settings+2,w
  2082  0259  00C8               	movwf	_c
  2083  025A                     l3650:	
  2084                           
  2085                           ;Button_src.c: 234:                     c = time_date_delimiter(c,0x31,'Y');
  2086  025A  3031               	movlw	49
  2087  025B  00DA               	movwf	??_time_settings
  2088  025C  085A               	movf	??_time_settings,w
  2089  025D  00F0               	movwf	time_date_delimiter@hex
  2090  025E  3059               	movlw	89
  2091  025F  00DB               	movwf	??_time_settings+1
  2092  0260  085B               	movf	??_time_settings+1,w
  2093  0261  00F1               	movwf	time_date_delimiter@limiter
  2094  0262  0848               	movf	_c,w
  2095  0263  120A  118A  2005  120A  118A  	fcall	_time_date_delimiter
  2096  0268  1283               	bcf	3,5	;RP0=0, select bank0
  2097  0269  1303               	bcf	3,6	;RP1=0, select bank0
  2098  026A  00DC               	movwf	??_time_settings+2
  2099  026B  085C               	movf	??_time_settings+2,w
  2100  026C  00C8               	movwf	_c
  2101  026D                     l3652:	
  2102                           
  2103                           ;Button_src.c: 235:                     c = time_date_delimiter(c,0x41,'j');
  2104  026D  3041               	movlw	65
  2105  026E  00DA               	movwf	??_time_settings
  2106  026F  085A               	movf	??_time_settings,w
  2107  0270  00F0               	movwf	time_date_delimiter@hex
  2108  0271  306A               	movlw	106
  2109  0272  00DB               	movwf	??_time_settings+1
  2110  0273  085B               	movf	??_time_settings+1,w
  2111  0274  00F1               	movwf	time_date_delimiter@limiter
  2112  0275  0848               	movf	_c,w
  2113  0276  120A  118A  2005  120A  118A  	fcall	_time_date_delimiter
  2114  027B  1283               	bcf	3,5	;RP0=0, select bank0
  2115  027C  1303               	bcf	3,6	;RP1=0, select bank0
  2116  027D  00DC               	movwf	??_time_settings+2
  2117  027E  085C               	movf	??_time_settings+2,w
  2118  027F  00C8               	movwf	_c
  2119  0280                     l3654:	
  2120                           
  2121                           ;Button_src.c: 236:                     c = time_date_delimiter(c,0x51,'z');
  2122  0280  3051               	movlw	81
  2123  0281  00DA               	movwf	??_time_settings
  2124  0282  085A               	movf	??_time_settings,w
  2125  0283  00F0               	movwf	time_date_delimiter@hex
  2126  0284  307A               	movlw	122
  2127  0285  00DB               	movwf	??_time_settings+1
  2128  0286  085B               	movf	??_time_settings+1,w
  2129  0287  00F1               	movwf	time_date_delimiter@limiter
  2130  0288  0848               	movf	_c,w
  2131  0289  120A  118A  2005  120A  118A  	fcall	_time_date_delimiter
  2132  028E  1283               	bcf	3,5	;RP0=0, select bank0
  2133  028F  1303               	bcf	3,6	;RP1=0, select bank0
  2134  0290  00DC               	movwf	??_time_settings+2
  2135  0291  085C               	movf	??_time_settings+2,w
  2136  0292  00C8               	movwf	_c
  2137  0293                     l3656:	
  2138                           
  2139                           ;Button_src.c: 238:                   RC0 = 0;
  2140  0293  1007               	bcf	7,0	;volatile
  2141  0294                     l3658:	
  2142                           
  2143                           ;Button_src.c: 239:                   RC1 = 1;
  2144  0294  1487               	bsf	7,1	;volatile
  2145  0295                     l3660:	
  2146                           
  2147                           ;Button_src.c: 240:                   RC2 = 1;
  2148  0295  1507               	bsf	7,2	;volatile
  2149  0296                     l3662:	
  2150                           
  2151                           ;Button_src.c: 241:                   RC3 = 1;
  2152  0296  1587               	bsf	7,3	;volatile
  2153  0297                     l3664:	
  2154                           
  2155                           ;Button_src.c: 242:                     if (RC6 == 0 ){
  2156  0297  1B07               	btfsc	7,6	;volatile
  2157  0298  2A9A               	goto	u2301
  2158  0299  2A9B               	goto	u2300
  2159  029A                     u2301:	
  2160  029A  2AB3               	goto	l541
  2161  029B                     u2300:	
  2162  029B                     l3666:	
  2163                           
  2164                           ;Button_src.c: 243:                           write_cmd(0x1);
  2165  029B  3001               	movlw	1
  2166  029C  160A  118A  25B1  120A  118A  	fcall	_write_cmd
  2167  02A1                     l3668:	
  2168                           
  2169                           ;Button_src.c: 244:                           a = 0x00;
  2170  02A1  1283               	bcf	3,5	;RP0=0, select bank0
  2171  02A2  1303               	bcf	3,6	;RP1=0, select bank0
  2172  02A3  01CA               	clrf	_a
  2173  02A4                     l3670:	
  2174                           
  2175                           ;Button_src.c: 245:                           c = 0x00;
  2176  02A4  01C8               	clrf	_c
  2177  02A5                     l3672:	
  2178                           
  2179                           ;Button_src.c: 246:                           x = 0;
  2180  02A5  01B7               	clrf	_x
  2181  02A6  01B8               	clrf	_x+1
  2182  02A7                     l3674:	
  2183                           
  2184                           ;Button_src.c: 247:                           y = 0;
  2185  02A7  01B5               	clrf	_y
  2186  02A8  01B6               	clrf	_y+1
  2187  02A9                     l3676:	
  2188                           
  2189                           ;Button_src.c: 248:                           w = 0;
  2190  02A9  01B9               	clrf	_w
  2191  02AA  01BA               	clrf	_w+1
  2192  02AB                     l3678:	
  2193                           
  2194                           ;Button_src.c: 249:                           t = 0;
  2195  02AB  01BB               	clrf	_t
  2196  02AC  01BC               	clrf	_t+1
  2197  02AD                     l3680:	
  2198                           
  2199                           ;Button_src.c: 250:                           set_time();
  2200  02AD  160A  118A  2697  120A  118A  	fcall	_set_time
  2201  02B2  2BC2               	goto	l542
  2202  02B3                     l541:	
  2203                           ;Button_src.c: 252:                             }
  2204                           
  2205                           
  2206                           ;Button_src.c: 253:                   RC0 = 1;
  2207  02B3  1407               	bsf	7,0	;volatile
  2208                           
  2209                           ;Button_src.c: 254:                   RC1 = 1;
  2210  02B4  1487               	bsf	7,1	;volatile
  2211                           
  2212                           ;Button_src.c: 255:                   RC2 = 0;
  2213  02B5  1107               	bcf	7,2	;volatile
  2214                           
  2215                           ;Button_src.c: 256:                   RC3 = 1;
  2216  02B6  1587               	bsf	7,3	;volatile
  2217  02B7                     l3684:	
  2218                           
  2219                           ;Button_src.c: 257:                   z = modulus_func(z,2);
  2220  02B7  0834               	movf	_z+1,w
  2221  02B8  00F8               	movwf	modulus_func@x+1
  2222  02B9  0833               	movf	_z,w
  2223  02BA  00F7               	movwf	modulus_func@x
  2224  02BB  3002               	movlw	2
  2225  02BC  00F9               	movwf	modulus_func@y
  2226  02BD  3000               	movlw	0
  2227  02BE  00FA               	movwf	modulus_func@y+1
  2228  02BF  160A  118A  24E2  120A  118A  	fcall	_modulus_func
  2229  02C4  0878               	movf	?_modulus_func+1,w
  2230  02C5  1283               	bcf	3,5	;RP0=0, select bank0
  2231  02C6  1303               	bcf	3,6	;RP1=0, select bank0
  2232  02C7  00B4               	movwf	_z+1
  2233  02C8  0877               	movf	?_modulus_func,w
  2234  02C9  00B3               	movwf	_z
  2235  02CA                     l3686:	
  2236                           
  2237                           ;Button_src.c: 258:                   if(RC4 == 0 && z ==0){
  2238  02CA  1A07               	btfsc	7,4	;volatile
  2239  02CB  2ACD               	goto	u2311
  2240  02CC  2ACE               	goto	u2310
  2241  02CD                     u2311:	
  2242  02CD  2B0B               	goto	l3696
  2243  02CE                     u2310:	
  2244  02CE                     l3688:	
  2245  02CE  0833               	movf	_z,w
  2246  02CF  0434               	iorwf	_z+1,w
  2247  02D0  1D03               	btfss	3,2
  2248  02D1  2AD3               	goto	u2321
  2249  02D2  2AD4               	goto	u2320
  2250  02D3                     u2321:	
  2251  02D3  2B0B               	goto	l3696
  2252  02D4                     u2320:	
  2253  02D4                     l3690:	
  2254                           
  2255                           ;Button_src.c: 259:                       write_cmd(0x90);
  2256  02D4  3090               	movlw	144
  2257  02D5  160A  118A  25B1  120A  118A  	fcall	_write_cmd
  2258                           
  2259                           ;Button_src.c: 260:                       write_char('H');
  2260  02DA  3048               	movlw	72
  2261  02DB  160A  118A  2598  120A  118A  	fcall	_write_char
  2262                           
  2263                           ;Button_src.c: 261:                       write_char('o');
  2264  02E0  306F               	movlw	111
  2265  02E1  160A  118A  2598  120A  118A  	fcall	_write_char
  2266                           
  2267                           ;Button_src.c: 262:                       write_char('u');
  2268  02E6  3075               	movlw	117
  2269  02E7  160A  118A  2598  120A  118A  	fcall	_write_char
  2270                           
  2271                           ;Button_src.c: 263:                       write_char('r');
  2272  02EC  3072               	movlw	114
  2273  02ED  160A  118A  2598  120A  118A  	fcall	_write_char
  2274                           
  2275                           ;Button_src.c: 264:                       write_char(':');
  2276  02F2  303A               	movlw	58
  2277  02F3  160A  118A  2598  120A  118A  	fcall	_write_char
  2278  02F8                     l3692:	
  2279                           
  2280                           ;Button_src.c: 265:                       b = 'x';
  2281  02F8  3078               	movlw	120
  2282  02F9  1283               	bcf	3,5	;RP0=0, select bank0
  2283  02FA  1303               	bcf	3,6	;RP1=0, select bank0
  2284  02FB  00DA               	movwf	??_time_settings
  2285  02FC  085A               	movf	??_time_settings,w
  2286  02FD  00C9               	movwf	_b
  2287  02FE                     l3694:	
  2288                           
  2289                           ;Button_src.c: 266:                       button_delay();
  2290  02FE  160A  118A  2540  120A  118A  	fcall	_button_delay
  2291                           
  2292                           ;Button_src.c: 267:                       z++;
  2293  0303  3001               	movlw	1
  2294  0304  1283               	bcf	3,5	;RP0=0, select bank0
  2295  0305  1303               	bcf	3,6	;RP1=0, select bank0
  2296  0306  07B3               	addwf	_z,f
  2297  0307  1803               	skipnc
  2298  0308  0AB4               	incf	_z+1,f
  2299  0309  3000               	movlw	0
  2300  030A  07B4               	addwf	_z+1,f
  2301  030B                     l3696:	
  2302                           
  2303                           ;Button_src.c: 269:                   RC0 = 1;
  2304  030B  1407               	bsf	7,0	;volatile
  2305  030C                     l3698:	
  2306                           
  2307                           ;Button_src.c: 270:                   RC1 = 1;
  2308  030C  1487               	bsf	7,1	;volatile
  2309  030D                     l3700:	
  2310                           
  2311                           ;Button_src.c: 271:                   RC2 = 0;
  2312  030D  1107               	bcf	7,2	;volatile
  2313  030E                     l3702:	
  2314                           
  2315                           ;Button_src.c: 272:                   RC3 = 1;
  2316  030E  1587               	bsf	7,3	;volatile
  2317  030F                     l3704:	
  2318                           
  2319                           ;Button_src.c: 274:                   if(RC4 == 0&& z ==1){
  2320  030F  1A07               	btfsc	7,4	;volatile
  2321  0310  2B12               	goto	u2331
  2322  0311  2B13               	goto	u2330
  2323  0312                     u2331:	
  2324  0312  2B4E               	goto	l544
  2325  0313                     u2330:	
  2326  0313                     l3706:	
  2327  0313  0333               	decf	_z,w
  2328  0314  0434               	iorwf	_z+1,w
  2329  0315  1D03               	btfss	3,2
  2330  0316  2B18               	goto	u2341
  2331  0317  2B19               	goto	u2340
  2332  0318                     u2341:	
  2333  0318  2B4E               	goto	l544
  2334  0319                     u2340:	
  2335  0319                     l3708:	
  2336                           
  2337                           ;Button_src.c: 275:                     z++;
  2338  0319  3001               	movlw	1
  2339  031A  07B3               	addwf	_z,f
  2340  031B  1803               	skipnc
  2341  031C  0AB4               	incf	_z+1,f
  2342  031D  3000               	movlw	0
  2343  031E  07B4               	addwf	_z+1,f
  2344  031F                     l3710:	
  2345                           
  2346                           ;Button_src.c: 276:                     button_delay();
  2347  031F  160A  118A  2540  120A  118A  	fcall	_button_delay
  2348  0324                     l3712:	
  2349                           
  2350                           ;Button_src.c: 277:                     write_cmd(0x90);
  2351  0324  3090               	movlw	144
  2352  0325  160A  118A  25B1  120A  118A  	fcall	_write_cmd
  2353  032A                     l3714:	
  2354                           
  2355                           ;Button_src.c: 278:                     write_char('M');
  2356  032A  304D               	movlw	77
  2357  032B  160A  118A  2598  120A  118A  	fcall	_write_char
  2358  0330                     l3716:	
  2359                           
  2360                           ;Button_src.c: 279:                     write_char('i');
  2361  0330  3069               	movlw	105
  2362  0331  160A  118A  2598  120A  118A  	fcall	_write_char
  2363  0336                     l3718:	
  2364                           
  2365                           ;Button_src.c: 280:                     write_char('n');
  2366  0336  306E               	movlw	110
  2367  0337  160A  118A  2598  120A  118A  	fcall	_write_char
  2368  033C                     l3720:	
  2369                           
  2370                           ;Button_src.c: 281:                     write_char('s');
  2371  033C  3073               	movlw	115
  2372  033D  160A  118A  2598  120A  118A  	fcall	_write_char
  2373  0342                     l3722:	
  2374                           
  2375                           ;Button_src.c: 282:                     write_char(':');
  2376  0342  303A               	movlw	58
  2377  0343  160A  118A  2598  120A  118A  	fcall	_write_char
  2378  0348                     l3724:	
  2379                           
  2380                           ;Button_src.c: 283:                     b = 'y';
  2381  0348  3079               	movlw	121
  2382  0349  1283               	bcf	3,5	;RP0=0, select bank0
  2383  034A  1303               	bcf	3,6	;RP1=0, select bank0
  2384  034B  00DA               	movwf	??_time_settings
  2385  034C  085A               	movf	??_time_settings,w
  2386  034D  00C9               	movwf	_b
  2387  034E                     l544:	
  2388                           ;Button_src.c: 284:                   }
  2389                           
  2390                           
  2391                           ;Button_src.c: 285:                    write_cmd(0x88);
  2392  034E  3088               	movlw	136
  2393  034F  160A  118A  25B1  120A  118A  	fcall	_write_cmd
  2394  0354                     l3726:	
  2395                           
  2396                           ;Button_src.c: 292:                   RC0 = 1;
  2397  0354  1283               	bcf	3,5	;RP0=0, select bank0
  2398  0355  1303               	bcf	3,6	;RP1=0, select bank0
  2399  0356  1407               	bsf	7,0	;volatile
  2400  0357                     l3728:	
  2401                           
  2402                           ;Button_src.c: 293:                   RC1 = 1;
  2403  0357  1487               	bsf	7,1	;volatile
  2404  0358                     l3730:	
  2405                           
  2406                           ;Button_src.c: 294:                   RC2 = 0;
  2407  0358  1107               	bcf	7,2	;volatile
  2408  0359                     l3732:	
  2409                           
  2410                           ;Button_src.c: 295:                   RC3 = 1;
  2411  0359  1587               	bsf	7,3	;volatile
  2412                           
  2413                           ;Button_src.c: 297:              write_cmd(0x88);
  2414  035A  3088               	movlw	136
  2415  035B  160A  118A  25B1  120A  118A  	fcall	_write_cmd
  2416                           
  2417                           ;Button_src.c: 298:              write_char('T');
  2418  0360  3054               	movlw	84
  2419  0361  160A  118A  2598  120A  118A  	fcall	_write_char
  2420                           
  2421                           ;Button_src.c: 299:              write_char('i');
  2422  0366  3069               	movlw	105
  2423  0367  160A  118A  2598  120A  118A  	fcall	_write_char
  2424                           
  2425                           ;Button_src.c: 300:              write_char('m');
  2426  036C  306D               	movlw	109
  2427  036D  160A  118A  2598  120A  118A  	fcall	_write_char
  2428                           
  2429                           ;Button_src.c: 301:              write_char('e');
  2430  0372  3065               	movlw	101
  2431  0373  160A  118A  2598  120A  118A  	fcall	_write_char
  2432                           
  2433                           ;Button_src.c: 302:              write_char(':');
  2434  0378  303A               	movlw	58
  2435  0379  160A  118A  2598  120A  118A  	fcall	_write_char
  2436                           
  2437                           ;Button_src.c: 303:              write_char(y + '0');
  2438  037E  1283               	bcf	3,5	;RP0=0, select bank0
  2439  037F  1303               	bcf	3,6	;RP1=0, select bank0
  2440  0380  0835               	movf	_y,w
  2441  0381  3E30               	addlw	48
  2442  0382  160A  118A  2598  120A  118A  	fcall	_write_char
  2443                           
  2444                           ;Button_src.c: 304:              write_char(x + '0');
  2445  0387  1283               	bcf	3,5	;RP0=0, select bank0
  2446  0388  1303               	bcf	3,6	;RP1=0, select bank0
  2447  0389  0837               	movf	_x,w
  2448  038A  3E30               	addlw	48
  2449  038B  160A  118A  2598  120A  118A  	fcall	_write_char
  2450                           
  2451                           ;Button_src.c: 305:              write_char(':');
  2452  0390  303A               	movlw	58
  2453  0391  160A  118A  2598  120A  118A  	fcall	_write_char
  2454                           
  2455                           ;Button_src.c: 306:              write_char(w + '0');
  2456  0396  1283               	bcf	3,5	;RP0=0, select bank0
  2457  0397  1303               	bcf	3,6	;RP1=0, select bank0
  2458  0398  0839               	movf	_w,w
  2459  0399  3E30               	addlw	48
  2460  039A  160A  118A  2598  120A  118A  	fcall	_write_char
  2461                           
  2462                           ;Button_src.c: 307:              write_char(t + '0');
  2463  039F  1283               	bcf	3,5	;RP0=0, select bank0
  2464  03A0  1303               	bcf	3,6	;RP1=0, select bank0
  2465  03A1  083B               	movf	_t,w
  2466  03A2  3E30               	addlw	48
  2467  03A3  160A  118A  2598  120A  118A  	fcall	_write_char
  2468  03A8                     l3734:	
  2469                           
  2470                           ;Button_src.c: 309:             RC0 = 0;
  2471  03A8  1283               	bcf	3,5	;RP0=0, select bank0
  2472  03A9  1303               	bcf	3,6	;RP1=0, select bank0
  2473  03AA  1007               	bcf	7,0	;volatile
  2474  03AB                     l3736:	
  2475                           
  2476                           ;Button_src.c: 310:             RC1 = 1;
  2477  03AB  1487               	bsf	7,1	;volatile
  2478  03AC                     l3738:	
  2479                           
  2480                           ;Button_src.c: 311:             RC2 = 1;
  2481  03AC  1507               	bsf	7,2	;volatile
  2482  03AD                     l3740:	
  2483                           
  2484                           ;Button_src.c: 312:             RC3 = 1;
  2485  03AD  1587               	bsf	7,3	;volatile
  2486  03AE                     l3742:	
  2487                           
  2488                           ;Button_src.c: 313:             if (RC7 == 0 ){
  2489  03AE  1B87               	btfsc	7,7	;volatile
  2490  03AF  2BB1               	goto	u2351
  2491  03B0  2BB2               	goto	u2350
  2492  03B1                     u2351:	
  2493  03B1  28E5               	goto	l535
  2494  03B2                     u2350:	
  2495  03B2                     l3744:	
  2496                           
  2497                           ;Button_src.c: 314:             a = 0x00;
  2498  03B2  01CA               	clrf	_a
  2499                           
  2500                           ;Button_src.c: 315:             c = 0x00;
  2501  03B3  01C8               	clrf	_c
  2502                           
  2503                           ;Button_src.c: 316:             x = 0;
  2504  03B4  01B7               	clrf	_x
  2505  03B5  01B8               	clrf	_x+1
  2506                           
  2507                           ;Button_src.c: 317:             y = 0;
  2508  03B6  01B5               	clrf	_y
  2509  03B7  01B6               	clrf	_y+1
  2510                           
  2511                           ;Button_src.c: 318:             w = 0;
  2512  03B8  01B9               	clrf	_w
  2513  03B9  01BA               	clrf	_w+1
  2514                           
  2515                           ;Button_src.c: 319:             t = 0;
  2516  03BA  01BB               	clrf	_t
  2517  03BB  01BC               	clrf	_t+1
  2518  03BC                     l3746:	
  2519                           
  2520                           ;Button_src.c: 320:             write_cmd(0x1);
  2521  03BC  3001               	movlw	1
  2522  03BD  160A  118A  25B1  120A  118A  	fcall	_write_cmd
  2523  03C2                     l542:	
  2524                           ;Button_src.c: 321:             break;
  2525                           
  2526  03C2  0008               	return
  2527  03C3                     __end_of_time_settings:	
  2528                           
  2529                           	psect	text2
  2530  0D78                     __ptext2:	
  2531 ;; *************** function _thermometer_threshhold_settings *****************
  2532 ;; Defined at:
  2533 ;;		line 22 in file "Button_src.c"
  2534 ;; Parameters:    Size  Location     Type
  2535 ;;		None
  2536 ;; Auto vars:     Size  Location     Type
  2537 ;;  i               2    8[BANK0 ] int 
  2538 ;; Return value:  Size  Location     Type
  2539 ;;                  1    wreg      void 
  2540 ;; Registers used:
  2541 ;;		wreg, status,2, status,0, btemp+1, pclath, cstack
  2542 ;; Tracked objects:
  2543 ;;		On entry : 0/0
  2544 ;;		On exit  : 0/0
  2545 ;;		Unchanged: 0/0
  2546 ;; Data sizes:     COMMON   BANK0   BANK1   BANK3   BANK2
  2547 ;;      Params:         0       0       0       0       0
  2548 ;;      Locals:         0       2       0       0       0
  2549 ;;      Temps:          0       3       0       0       0
  2550 ;;      Totals:         0       5       0       0       0
  2551 ;;Total ram usage:        5 bytes
  2552 ;; Hardware stack levels used:    1
  2553 ;; Hardware stack levels required when called:    3
  2554 ;; This function calls:
  2555 ;;		_button_delay
  2556 ;;		_decrementor
  2557 ;;		_incrementor
  2558 ;;		_modulus_func
  2559 ;;		_write_char
  2560 ;;		_write_cmd
  2561 ;; This function is called by:
  2562 ;;		_main
  2563 ;; This function uses a non-reentrant model
  2564 ;;
  2565                           
  2566                           
  2567                           ;psect for function _thermometer_threshhold_settings
  2568  0D78                     _thermometer_threshhold_settings:	
  2569  0D78                     l3208:	
  2570                           ;incstack = 0
  2571                           ; Regs used in _thermometer_threshhold_settings: [wreg+status,2+status,0+btemp+1+pclath+
      +                          cstack]
  2572                           
  2573                           
  2574                           ;Button_src.c: 23:  RC0 = 1;
  2575  0D78  1283               	bcf	3,5	;RP0=0, select bank0
  2576  0D79  1303               	bcf	3,6	;RP1=0, select bank0
  2577  0D7A  1407               	bsf	7,0	;volatile
  2578                           
  2579                           ;Button_src.c: 24:  RC1 = 0;
  2580  0D7B  1087               	bcf	7,1	;volatile
  2581                           
  2582                           ;Button_src.c: 25:  RC2 = 1;
  2583  0D7C  1507               	bsf	7,2	;volatile
  2584                           
  2585                           ;Button_src.c: 26:  RC3 = 1;
  2586  0D7D  1587               	bsf	7,3	;volatile
  2587                           
  2588                           ;Button_src.c: 27:   if (RC4 == 0){
  2589  0D7E  1A07               	btfsc	7,4	;volatile
  2590  0D7F  2D81               	goto	u1901
  2591  0D80  2D82               	goto	u1900
  2592  0D81                     u1901:	
  2593  0D81  2FFF               	goto	l525
  2594  0D82                     u1900:	
  2595  0D82                     l3210:	
  2596                           
  2597                           ;Button_src.c: 28:       write_cmd(0x1);
  2598  0D82  3001               	movlw	1
  2599  0D83  160A  118A  25B1  120A  158A  	fcall	_write_cmd
  2600  0D88                     l519:	
  2601                           ;Button_src.c: 29:       for(;;){
  2602                           
  2603                           
  2604                           ;Button_src.c: 30:             write_cmd(0x80);
  2605  0D88  3080               	movlw	128
  2606  0D89  160A  118A  25B1  120A  158A  	fcall	_write_cmd
  2607                           
  2608                           ;Button_src.c: 31:             write_char('t');
  2609  0D8E  3074               	movlw	116
  2610  0D8F  160A  118A  2598  120A  158A  	fcall	_write_char
  2611                           
  2612                           ;Button_src.c: 32:             write_char('h');
  2613  0D94  3068               	movlw	104
  2614  0D95  160A  118A  2598  120A  158A  	fcall	_write_char
  2615                           
  2616                           ;Button_src.c: 33:             write_char('r');
  2617  0D9A  3072               	movlw	114
  2618  0D9B  160A  118A  2598  120A  158A  	fcall	_write_char
  2619                           
  2620                           ;Button_src.c: 34:             write_char('e');
  2621  0DA0  3065               	movlw	101
  2622  0DA1  160A  118A  2598  120A  158A  	fcall	_write_char
  2623                           
  2624                           ;Button_src.c: 35:             write_char('s');
  2625  0DA6  3073               	movlw	115
  2626  0DA7  160A  118A  2598  120A  158A  	fcall	_write_char
  2627                           
  2628                           ;Button_src.c: 36:             write_char('h');
  2629  0DAC  3068               	movlw	104
  2630  0DAD  160A  118A  2598  120A  158A  	fcall	_write_char
  2631                           
  2632                           ;Button_src.c: 37:             write_char('o');
  2633  0DB2  306F               	movlw	111
  2634  0DB3  160A  118A  2598  120A  158A  	fcall	_write_char
  2635                           
  2636                           ;Button_src.c: 38:             write_char('l');
  2637  0DB8  306C               	movlw	108
  2638  0DB9  160A  118A  2598  120A  158A  	fcall	_write_char
  2639                           
  2640                           ;Button_src.c: 39:             write_char('d');
  2641  0DBE  3064               	movlw	100
  2642  0DBF  160A  118A  2598  120A  158A  	fcall	_write_char
  2643                           
  2644                           ;Button_src.c: 41:             write_cmd(0x90);
  2645  0DC4  3090               	movlw	144
  2646  0DC5  160A  118A  25B1  120A  158A  	fcall	_write_cmd
  2647                           
  2648                           ;Button_src.c: 42:             write_char('C');
  2649  0DCA  3043               	movlw	67
  2650  0DCB  160A  118A  2598  120A  158A  	fcall	_write_char
  2651                           
  2652                           ;Button_src.c: 43:             write_char('u');
  2653  0DD0  3075               	movlw	117
  2654  0DD1  160A  118A  2598  120A  158A  	fcall	_write_char
  2655                           
  2656                           ;Button_src.c: 44:             write_char('r');
  2657  0DD6  3072               	movlw	114
  2658  0DD7  160A  118A  2598  120A  158A  	fcall	_write_char
  2659                           
  2660                           ;Button_src.c: 45:             write_char('r');
  2661  0DDC  3072               	movlw	114
  2662  0DDD  160A  118A  2598  120A  158A  	fcall	_write_char
  2663                           
  2664                           ;Button_src.c: 46:             write_char('e');
  2665  0DE2  3065               	movlw	101
  2666  0DE3  160A  118A  2598  120A  158A  	fcall	_write_char
  2667                           
  2668                           ;Button_src.c: 47:             write_char('n');
  2669  0DE8  306E               	movlw	110
  2670  0DE9  160A  118A  2598  120A  158A  	fcall	_write_char
  2671                           
  2672                           ;Button_src.c: 48:             write_char('t');
  2673  0DEE  3074               	movlw	116
  2674  0DEF  160A  118A  2598  120A  158A  	fcall	_write_char
  2675                           
  2676                           ;Button_src.c: 49:             write_char(':');
  2677  0DF4  303A               	movlw	58
  2678  0DF5  160A  118A  2598  120A  158A  	fcall	_write_char
  2679                           
  2680                           ;Button_src.c: 51:             write_char(var1 + '0');
  2681  0DFA  1283               	bcf	3,5	;RP0=0, select bank0
  2682  0DFB  1303               	bcf	3,6	;RP1=0, select bank0
  2683  0DFC  0841               	movf	_var1,w
  2684  0DFD  3E30               	addlw	48
  2685  0DFE  160A  118A  2598  120A  158A  	fcall	_write_char
  2686                           
  2687                           ;Button_src.c: 52:             write_char(var2 + '0');
  2688  0E03  1283               	bcf	3,5	;RP0=0, select bank0
  2689  0E04  1303               	bcf	3,6	;RP1=0, select bank0
  2690  0E05  0840               	movf	_var2,w
  2691  0E06  3E30               	addlw	48
  2692  0E07  160A  118A  2598  120A  158A  	fcall	_write_char
  2693                           
  2694                           ;Button_src.c: 54:             write_cmd(0x88);
  2695  0E0C  3088               	movlw	136
  2696  0E0D  160A  118A  25B1  120A  158A  	fcall	_write_cmd
  2697                           
  2698                           ;Button_src.c: 55:             write_char('S');
  2699  0E12  3053               	movlw	83
  2700  0E13  160A  118A  2598  120A  158A  	fcall	_write_char
  2701                           
  2702                           ;Button_src.c: 56:             write_char('e');
  2703  0E18  3065               	movlw	101
  2704  0E19  160A  118A  2598  120A  158A  	fcall	_write_char
  2705                           
  2706                           ;Button_src.c: 57:             write_char('t');
  2707  0E1E  3074               	movlw	116
  2708  0E1F  160A  118A  2598  120A  158A  	fcall	_write_char
  2709                           
  2710                           ;Button_src.c: 58:             write_char('_');
  2711  0E24  305F               	movlw	95
  2712  0E25  160A  118A  2598  120A  158A  	fcall	_write_char
  2713                           
  2714                           ;Button_src.c: 59:             write_char('t');
  2715  0E2A  3074               	movlw	116
  2716  0E2B  160A  118A  2598  120A  158A  	fcall	_write_char
  2717                           
  2718                           ;Button_src.c: 60:             write_char('h');
  2719  0E30  3068               	movlw	104
  2720  0E31  160A  118A  2598  120A  158A  	fcall	_write_char
  2721                           
  2722                           ;Button_src.c: 61:             write_char('r');
  2723  0E36  3072               	movlw	114
  2724  0E37  160A  118A  2598  120A  158A  	fcall	_write_char
  2725                           
  2726                           ;Button_src.c: 62:             write_char('e');
  2727  0E3C  3065               	movlw	101
  2728  0E3D  160A  118A  2598  120A  158A  	fcall	_write_char
  2729                           
  2730                           ;Button_src.c: 63:             write_char('s');
  2731  0E42  3073               	movlw	115
  2732  0E43  160A  118A  2598  120A  158A  	fcall	_write_char
  2733                           
  2734                           ;Button_src.c: 64:             write_char('h');
  2735  0E48  3068               	movlw	104
  2736  0E49  160A  118A  2598  120A  158A  	fcall	_write_char
  2737                           
  2738                           ;Button_src.c: 65:             write_char('o');
  2739  0E4E  306F               	movlw	111
  2740  0E4F  160A  118A  2598  120A  158A  	fcall	_write_char
  2741                           
  2742                           ;Button_src.c: 66:             write_char('l');
  2743  0E54  306C               	movlw	108
  2744  0E55  160A  118A  2598  120A  158A  	fcall	_write_char
  2745                           
  2746                           ;Button_src.c: 67:             write_char('d');
  2747  0E5A  3064               	movlw	100
  2748  0E5B  160A  118A  2598  120A  158A  	fcall	_write_char
  2749                           
  2750                           ;Button_src.c: 68:             write_char(':');
  2751  0E60  303A               	movlw	58
  2752  0E61  160A  118A  2598  120A  158A  	fcall	_write_char
  2753                           
  2754                           ;Button_src.c: 70:             write_cmd(0x98);
  2755  0E66  3098               	movlw	152
  2756  0E67  160A  118A  25B1  120A  158A  	fcall	_write_cmd
  2757  0E6C                     l3212:	
  2758                           
  2759                           ;Button_src.c: 71:             RC0 = 1;
  2760  0E6C  1283               	bcf	3,5	;RP0=0, select bank0
  2761  0E6D  1303               	bcf	3,6	;RP1=0, select bank0
  2762  0E6E  1407               	bsf	7,0	;volatile
  2763  0E6F                     l3214:	
  2764                           
  2765                           ;Button_src.c: 72:             RC1 = 0;
  2766  0E6F  1087               	bcf	7,1	;volatile
  2767  0E70                     l3216:	
  2768                           
  2769                           ;Button_src.c: 73:             RC2 = 1;
  2770  0E70  1507               	bsf	7,2	;volatile
  2771  0E71                     l3218:	
  2772                           
  2773                           ;Button_src.c: 74:             RC3 = 1;
  2774  0E71  1587               	bsf	7,3	;volatile
  2775  0E72                     l3220:	
  2776                           
  2777                           ;Button_src.c: 75:             t = 0;
  2778  0E72  01BB               	clrf	_t
  2779  0E73  01BC               	clrf	_t+1
  2780  0E74                     l3222:	
  2781                           
  2782                           ;Button_src.c: 76:             w = 0;
  2783  0E74  01B9               	clrf	_w
  2784  0E75  01BA               	clrf	_w+1
  2785  0E76                     l3224:	
  2786                           
  2787                           ;Button_src.c: 77:             x = 0;
  2788  0E76  01B7               	clrf	_x
  2789  0E77  01B8               	clrf	_x+1
  2790  0E78                     l3226:	
  2791                           
  2792                           ;Button_src.c: 78:             y = 0;
  2793  0E78  01B5               	clrf	_y
  2794  0E79  01B6               	clrf	_y+1
  2795  0E7A                     l3228:	
  2796                           
  2797                           ;Button_src.c: 79:             x = 0x00;
  2798  0E7A  01B7               	clrf	_x
  2799  0E7B  01B8               	clrf	_x+1
  2800  0E7C                     l3230:	
  2801                           
  2802                           ;Button_src.c: 81:                  RC0 = 1;
  2803  0E7C  1407               	bsf	7,0	;volatile
  2804  0E7D                     l3232:	
  2805                           
  2806                           ;Button_src.c: 82:                  RC1 = 0;
  2807  0E7D  1087               	bcf	7,1	;volatile
  2808  0E7E                     l3234:	
  2809                           
  2810                           ;Button_src.c: 83:                  RC2 = 1;
  2811  0E7E  1507               	bsf	7,2	;volatile
  2812  0E7F                     l3236:	
  2813                           
  2814                           ;Button_src.c: 84:                  RC3 = 1;
  2815  0E7F  1587               	bsf	7,3	;volatile
  2816  0E80                     l3238:	
  2817                           
  2818                           ;Button_src.c: 86:                 if(RC7==0){
  2819  0E80  1B87               	btfsc	7,7	;volatile
  2820  0E81  2E83               	goto	u1911
  2821  0E82  2E84               	goto	u1910
  2822  0E83                     u1911:	
  2823  0E83  2EE7               	goto	l3258
  2824  0E84                     u1910:	
  2825  0E84                     l3240:	
  2826                           
  2827                           ;Button_src.c: 87:                     write_cmd(0x98);
  2828  0E84  3098               	movlw	152
  2829  0E85  160A  118A  25B1  120A  158A  	fcall	_write_cmd
  2830  0E8A                     l3242:	
  2831                           
  2832                           ;Button_src.c: 88:                     x++;
  2833  0E8A  3001               	movlw	1
  2834  0E8B  1283               	bcf	3,5	;RP0=0, select bank0
  2835  0E8C  1303               	bcf	3,6	;RP1=0, select bank0
  2836  0E8D  07B7               	addwf	_x,f
  2837  0E8E  1803               	skipnc
  2838  0E8F  0AB8               	incf	_x+1,f
  2839  0E90  3000               	movlw	0
  2840  0E91  07B8               	addwf	_x+1,f
  2841  0E92                     l3244:	
  2842                           
  2843                           ;Button_src.c: 89:                     y = (unsigned char )y;
  2844  0E92  0835               	movf	_y,w
  2845  0E93  00DA               	movwf	??_thermometer_threshhold_settings
  2846  0E94  01DB               	clrf	??_thermometer_threshhold_settings+1
  2847  0E95  085A               	movf	??_thermometer_threshhold_settings,w
  2848  0E96  00B5               	movwf	_y
  2849  0E97  085B               	movf	??_thermometer_threshhold_settings+1,w
  2850  0E98  00B6               	movwf	_y+1
  2851  0E99                     l3246:	
  2852                           
  2853                           ;Button_src.c: 90:                     x = (unsigned char )(modulus_func(x,10));
  2854  0E99  0838               	movf	_x+1,w
  2855  0E9A  00F8               	movwf	modulus_func@x+1
  2856  0E9B  0837               	movf	_x,w
  2857  0E9C  00F7               	movwf	modulus_func@x
  2858  0E9D  300A               	movlw	10
  2859  0E9E  00F9               	movwf	modulus_func@y
  2860  0E9F  3000               	movlw	0
  2861  0EA0  00FA               	movwf	modulus_func@y+1
  2862  0EA1  160A  118A  24E2  120A  158A  	fcall	_modulus_func
  2863  0EA6  0877               	movf	?_modulus_func,w
  2864  0EA7  1283               	bcf	3,5	;RP0=0, select bank0
  2865  0EA8  1303               	bcf	3,6	;RP1=0, select bank0
  2866  0EA9  00DA               	movwf	??_thermometer_threshhold_settings
  2867  0EAA  01DB               	clrf	??_thermometer_threshhold_settings+1
  2868  0EAB  085A               	movf	??_thermometer_threshhold_settings,w
  2869  0EAC  00B7               	movwf	_x
  2870  0EAD  085B               	movf	??_thermometer_threshhold_settings+1,w
  2871  0EAE  00B8               	movwf	_x+1
  2872  0EAF                     l3248:	
  2873                           
  2874                           ;Button_src.c: 91:                     write_char(y + '0');
  2875  0EAF  0835               	movf	_y,w
  2876  0EB0  3E30               	addlw	48
  2877  0EB1  160A  118A  2598  120A  158A  	fcall	_write_char
  2878  0EB6                     l3250:	
  2879                           
  2880                           ;Button_src.c: 92:                     write_char(x + '0');
  2881  0EB6  1283               	bcf	3,5	;RP0=0, select bank0
  2882  0EB7  1303               	bcf	3,6	;RP1=0, select bank0
  2883  0EB8  0837               	movf	_x,w
  2884  0EB9  3E30               	addlw	48
  2885  0EBA  160A  118A  2598  120A  158A  	fcall	_write_char
  2886  0EBF                     l3252:	
  2887                           
  2888                           ;Button_src.c: 93:                     y = incrementor(y,x,'9');
  2889  0EBF  1283               	bcf	3,5	;RP0=0, select bank0
  2890  0EC0  1303               	bcf	3,6	;RP1=0, select bank0
  2891  0EC1  0836               	movf	_y+1,w
  2892  0EC2  00D6               	movwf	incrementor@upper_val+1
  2893  0EC3  0835               	movf	_y,w
  2894  0EC4  00D5               	movwf	incrementor@upper_val
  2895  0EC5  0838               	movf	_x+1,w
  2896  0EC6  00D8               	movwf	incrementor@lower_val+1
  2897  0EC7  0837               	movf	_x,w
  2898  0EC8  00D7               	movwf	incrementor@lower_val
  2899  0EC9  3039               	movlw	57
  2900  0ECA  00DA               	movwf	??_thermometer_threshhold_settings
  2901  0ECB  085A               	movf	??_thermometer_threshhold_settings,w
  2902  0ECC  00D9               	movwf	incrementor@z
  2903  0ECD  160A  118A  266B  120A  158A  	fcall	_incrementor
  2904  0ED2  1283               	bcf	3,5	;RP0=0, select bank0
  2905  0ED3  1303               	bcf	3,6	;RP1=0, select bank0
  2906  0ED4  00DB               	movwf	??_thermometer_threshhold_settings+1
  2907  0ED5  01DC               	clrf	??_thermometer_threshhold_settings+2
  2908  0ED6  085B               	movf	??_thermometer_threshhold_settings+1,w
  2909  0ED7  00B5               	movwf	_y
  2910  0ED8  085C               	movf	??_thermometer_threshhold_settings+2,w
  2911  0ED9  00B6               	movwf	_y+1
  2912  0EDA                     l3254:	
  2913                           
  2914                           ;Button_src.c: 94:                     t = x;
  2915  0EDA  0838               	movf	_x+1,w
  2916  0EDB  00BC               	movwf	_t+1
  2917  0EDC  0837               	movf	_x,w
  2918  0EDD  00BB               	movwf	_t
  2919  0EDE                     l3256:	
  2920                           
  2921                           ;Button_src.c: 95:                     w = y;
  2922  0EDE  0836               	movf	_y+1,w
  2923  0EDF  00BA               	movwf	_w+1
  2924  0EE0  0835               	movf	_y,w
  2925  0EE1  00B9               	movwf	_w
  2926                           
  2927                           ;Button_src.c: 96:                     button_delay();
  2928  0EE2  160A  118A  2540  120A  158A  	fcall	_button_delay
  2929  0EE7                     l3258:	
  2930                           
  2931                           ;Button_src.c: 98:                   RC0 = 0;
  2932  0EE7  1283               	bcf	3,5	;RP0=0, select bank0
  2933  0EE8  1303               	bcf	3,6	;RP1=0, select bank0
  2934  0EE9  1007               	bcf	7,0	;volatile
  2935  0EEA                     l3260:	
  2936                           
  2937                           ;Button_src.c: 99:                     RC1 = 1;
  2938  0EEA  1487               	bsf	7,1	;volatile
  2939  0EEB                     l3262:	
  2940                           
  2941                           ;Button_src.c: 100:                     RC2 = 1;
  2942  0EEB  1507               	bsf	7,2	;volatile
  2943  0EEC                     l3264:	
  2944                           
  2945                           ;Button_src.c: 101:                     RC3 = 1;
  2946  0EEC  1587               	bsf	7,3	;volatile
  2947  0EED                     l3266:	
  2948                           
  2949                           ;Button_src.c: 102:                     if(RC6 == 0){
  2950  0EED  1B07               	btfsc	7,6	;volatile
  2951  0EEE  2EF0               	goto	u1921
  2952  0EEF  2EF1               	goto	u1920
  2953  0EF0                     u1921:	
  2954  0EF0  2F37               	goto	l522
  2955  0EF1                     u1920:	
  2956  0EF1                     l3268:	
  2957                           
  2958                           ;Button_src.c: 103:                         var1 = y;
  2959  0EF1  0835               	movf	_y,w
  2960  0EF2  00DA               	movwf	??_thermometer_threshhold_settings
  2961  0EF3  085A               	movf	??_thermometer_threshhold_settings,w
  2962  0EF4  00C1               	movwf	_var1
  2963                           
  2964                           ;Button_src.c: 104:                         var2 = x;
  2965  0EF5  0837               	movf	_x,w
  2966  0EF6  00DA               	movwf	??_thermometer_threshhold_settings
  2967  0EF7  085A               	movf	??_thermometer_threshhold_settings,w
  2968  0EF8  00C0               	movwf	_var2
  2969  0EF9                     l3270:	
  2970                           
  2971                           ;Button_src.c: 106:                         write_cmd(0x1);
  2972  0EF9  3001               	movlw	1
  2973  0EFA  160A  118A  25B1  120A  158A  	fcall	_write_cmd
  2974  0EFF                     l3272:	
  2975                           
  2976                           ;Button_src.c: 107:                         write_char('S');
  2977  0EFF  3053               	movlw	83
  2978  0F00  160A  118A  2598  120A  158A  	fcall	_write_char
  2979  0F05                     l3274:	
  2980                           
  2981                           ;Button_src.c: 108:                         write_char('A');
  2982  0F05  3041               	movlw	65
  2983  0F06  160A  118A  2598  120A  158A  	fcall	_write_char
  2984  0F0B                     l3276:	
  2985                           
  2986                           ;Button_src.c: 109:                         write_char('V');
  2987  0F0B  3056               	movlw	86
  2988  0F0C  160A  118A  2598  120A  158A  	fcall	_write_char
  2989  0F11                     l3278:	
  2990                           
  2991                           ;Button_src.c: 110:                         write_char('E');
  2992  0F11  3045               	movlw	69
  2993  0F12  160A  118A  2598  120A  158A  	fcall	_write_char
  2994  0F17                     l3280:	
  2995                           
  2996                           ;Button_src.c: 111:                         write_char('D');
  2997  0F17  3044               	movlw	68
  2998  0F18  160A  118A  2598  120A  158A  	fcall	_write_char
  2999  0F1D                     l3282:	
  3000                           
  3001                           ;Button_src.c: 112:                         for(int i=0;i<30000;i++);
  3002  0F1D  1283               	bcf	3,5	;RP0=0, select bank0
  3003  0F1E  1303               	bcf	3,6	;RP1=0, select bank0
  3004  0F1F  01DD               	clrf	thermometer_threshhold_settings@i
  3005  0F20  01DE               	clrf	thermometer_threshhold_settings@i+1
  3006  0F21                     l3288:	
  3007  0F21  3001               	movlw	1
  3008  0F22  1283               	bcf	3,5	;RP0=0, select bank0
  3009  0F23  1303               	bcf	3,6	;RP1=0, select bank0
  3010  0F24  07DD               	addwf	thermometer_threshhold_settings@i,f
  3011  0F25  1803               	skipnc
  3012  0F26  0ADE               	incf	thermometer_threshhold_settings@i+1,f
  3013  0F27  3000               	movlw	0
  3014  0F28  07DE               	addwf	thermometer_threshhold_settings@i+1,f
  3015  0F29                     l3290:	
  3016  0F29  085E               	movf	thermometer_threshhold_settings@i+1,w
  3017  0F2A  3A80               	xorlw	128
  3018  0F2B  00FF               	movwf	btemp+1
  3019  0F2C  30F5               	movlw	245
  3020  0F2D  027F               	subwf	btemp+1,w
  3021  0F2E  1D03               	skipz
  3022  0F2F  2F32               	goto	u1935
  3023  0F30  3030               	movlw	48
  3024  0F31  025D               	subwf	thermometer_threshhold_settings@i,w
  3025  0F32                     u1935:	
  3026  0F32  1C03               	skipc
  3027  0F33  2F35               	goto	u1931
  3028  0F34  2F36               	goto	u1930
  3029  0F35                     u1931:	
  3030  0F35  2F21               	goto	l3288
  3031  0F36                     u1930:	
  3032  0F36  2FFF               	goto	l525
  3033  0F37                     l522:	
  3034                           ;Button_src.c: 114:                     }
  3035                           
  3036                           
  3037                           ;Button_src.c: 115:                  RC0 = 1;
  3038  0F37  1407               	bsf	7,0	;volatile
  3039                           
  3040                           ;Button_src.c: 116:                  RC1 = 1;
  3041  0F38  1487               	bsf	7,1	;volatile
  3042                           
  3043                           ;Button_src.c: 117:                  RC2 = 0;
  3044  0F39  1107               	bcf	7,2	;volatile
  3045                           
  3046                           ;Button_src.c: 118:                  RC3 = 1;
  3047  0F3A  1587               	bsf	7,3	;volatile
  3048                           
  3049                           ;Button_src.c: 120:                  if(RC7 == 0){
  3050  0F3B  1B87               	btfsc	7,7	;volatile
  3051  0F3C  2F3E               	goto	u1941
  3052  0F3D  2F3F               	goto	u1940
  3053  0F3E                     u1941:	
  3054  0F3E  2FB5               	goto	l3312
  3055  0F3F                     u1940:	
  3056  0F3F                     l3292:	
  3057                           
  3058                           ;Button_src.c: 121:                     write_cmd(0x98);
  3059  0F3F  3098               	movlw	152
  3060  0F40  160A  118A  25B1  120A  158A  	fcall	_write_cmd
  3061  0F45                     l3294:	
  3062                           
  3063                           ;Button_src.c: 122:                       t--;
  3064  0F45  3001               	movlw	1
  3065  0F46  1283               	bcf	3,5	;RP0=0, select bank0
  3066  0F47  1303               	bcf	3,6	;RP1=0, select bank0
  3067  0F48  02BB               	subwf	_t,f
  3068  0F49  3000               	movlw	0
  3069  0F4A  1C03               	skipc
  3070  0F4B  03BC               	decf	_t+1,f
  3071  0F4C  02BC               	subwf	_t+1,f
  3072  0F4D                     l3296:	
  3073                           
  3074                           ;Button_src.c: 123:                     w = (unsigned char )w;
  3075  0F4D  0839               	movf	_w,w
  3076  0F4E  00DA               	movwf	??_thermometer_threshhold_settings
  3077  0F4F  01DB               	clrf	??_thermometer_threshhold_settings+1
  3078  0F50  085A               	movf	??_thermometer_threshhold_settings,w
  3079  0F51  00B9               	movwf	_w
  3080  0F52  085B               	movf	??_thermometer_threshhold_settings+1,w
  3081  0F53  00BA               	movwf	_w+1
  3082  0F54                     l3298:	
  3083                           
  3084                           ;Button_src.c: 124:                     t = (unsigned char )(modulus_func(t,10));
  3085  0F54  083C               	movf	_t+1,w
  3086  0F55  00F8               	movwf	modulus_func@x+1
  3087  0F56  083B               	movf	_t,w
  3088  0F57  00F7               	movwf	modulus_func@x
  3089  0F58  300A               	movlw	10
  3090  0F59  00F9               	movwf	modulus_func@y
  3091  0F5A  3000               	movlw	0
  3092  0F5B  00FA               	movwf	modulus_func@y+1
  3093  0F5C  160A  118A  24E2  120A  158A  	fcall	_modulus_func
  3094  0F61  0877               	movf	?_modulus_func,w
  3095  0F62  1283               	bcf	3,5	;RP0=0, select bank0
  3096  0F63  1303               	bcf	3,6	;RP1=0, select bank0
  3097  0F64  00DA               	movwf	??_thermometer_threshhold_settings
  3098  0F65  01DB               	clrf	??_thermometer_threshhold_settings+1
  3099  0F66  085A               	movf	??_thermometer_threshhold_settings,w
  3100  0F67  00BB               	movwf	_t
  3101  0F68  085B               	movf	??_thermometer_threshhold_settings+1,w
  3102  0F69  00BC               	movwf	_t+1
  3103  0F6A                     l3300:	
  3104                           
  3105                           ;Button_src.c: 125:                     write_char(w + '0');
  3106  0F6A  0839               	movf	_w,w
  3107  0F6B  3E30               	addlw	48
  3108  0F6C  160A  118A  2598  120A  158A  	fcall	_write_char
  3109  0F71                     l3302:	
  3110                           
  3111                           ;Button_src.c: 126:                     write_char(t + '0');
  3112  0F71  1283               	bcf	3,5	;RP0=0, select bank0
  3113  0F72  1303               	bcf	3,6	;RP1=0, select bank0
  3114  0F73  083B               	movf	_t,w
  3115  0F74  3E30               	addlw	48
  3116  0F75  160A  118A  2598  120A  158A  	fcall	_write_char
  3117  0F7A                     l3304:	
  3118                           
  3119                           ;Button_src.c: 127:                     w = decrementor(w,t,'0');
  3120  0F7A  1283               	bcf	3,5	;RP0=0, select bank0
  3121  0F7B  1303               	bcf	3,6	;RP1=0, select bank0
  3122  0F7C  083A               	movf	_w+1,w
  3123  0F7D  00D6               	movwf	decrementor@lower_val+1
  3124  0F7E  0839               	movf	_w,w
  3125  0F7F  00D5               	movwf	decrementor@lower_val
  3126  0F80  083C               	movf	_t+1,w
  3127  0F81  00D8               	movwf	decrementor@upper_val+1
  3128  0F82  083B               	movf	_t,w
  3129  0F83  00D7               	movwf	decrementor@upper_val
  3130  0F84  3030               	movlw	48
  3131  0F85  00DA               	movwf	??_thermometer_threshhold_settings
  3132  0F86  085A               	movf	??_thermometer_threshhold_settings,w
  3133  0F87  00D9               	movwf	decrementor@z
  3134  0F88  160A  118A  26C3  120A  158A  	fcall	_decrementor
  3135  0F8D  1283               	bcf	3,5	;RP0=0, select bank0
  3136  0F8E  1303               	bcf	3,6	;RP1=0, select bank0
  3137  0F8F  00DB               	movwf	??_thermometer_threshhold_settings+1
  3138  0F90  01DC               	clrf	??_thermometer_threshhold_settings+2
  3139  0F91  085B               	movf	??_thermometer_threshhold_settings+1,w
  3140  0F92  00B9               	movwf	_w
  3141  0F93  085C               	movf	??_thermometer_threshhold_settings+2,w
  3142  0F94  00BA               	movwf	_w+1
  3143  0F95                     l3306:	
  3144                           
  3145                           ;Button_src.c: 128:                     if((t + '0')=='0'){
  3146  0F95  083B               	movf	_t,w
  3147  0F96  3E30               	addlw	48
  3148  0F97  00DA               	movwf	??_thermometer_threshhold_settings
  3149  0F98  083C               	movf	_t+1,w
  3150  0F99  1803               	skipnc
  3151  0F9A  3E01               	addlw	1
  3152  0F9B  3E00               	addlw	0
  3153  0F9C  00DB               	movwf	??_thermometer_threshhold_settings+1
  3154  0F9D  3030               	movlw	48
  3155  0F9E  065A               	xorwf	??_thermometer_threshhold_settings,w
  3156  0F9F  045B               	iorwf	??_thermometer_threshhold_settings+1,w
  3157  0FA0  1D03               	btfss	3,2
  3158  0FA1  2FA3               	goto	u1951
  3159  0FA2  2FA4               	goto	u1950
  3160  0FA3                     u1951:	
  3161  0FA3  2FA8               	goto	l527
  3162  0FA4                     u1950:	
  3163  0FA4                     l3308:	
  3164                           
  3165                           ;Button_src.c: 129:                         t = 10;
  3166  0FA4  300A               	movlw	10
  3167  0FA5  00BB               	movwf	_t
  3168  0FA6  3000               	movlw	0
  3169  0FA7  00BC               	movwf	_t+1
  3170  0FA8                     l527:	
  3171                           ;Button_src.c: 130:                     }
  3172                           
  3173                           
  3174                           ;Button_src.c: 132:                     x = t;
  3175  0FA8  083C               	movf	_t+1,w
  3176  0FA9  00B8               	movwf	_x+1
  3177  0FAA  083B               	movf	_t,w
  3178  0FAB  00B7               	movwf	_x
  3179                           
  3180                           ;Button_src.c: 133:                     y = w;
  3181  0FAC  083A               	movf	_w+1,w
  3182  0FAD  00B6               	movwf	_y+1
  3183  0FAE  0839               	movf	_w,w
  3184  0FAF  00B5               	movwf	_y
  3185  0FB0                     l3310:	
  3186                           
  3187                           ;Button_src.c: 134:                     button_delay();
  3188  0FB0  160A  118A  2540  120A  158A  	fcall	_button_delay
  3189  0FB5                     l3312:	
  3190                           
  3191                           ;Button_src.c: 136:                 RC0 = 0;
  3192  0FB5  1283               	bcf	3,5	;RP0=0, select bank0
  3193  0FB6  1303               	bcf	3,6	;RP1=0, select bank0
  3194  0FB7  1007               	bcf	7,0	;volatile
  3195  0FB8                     l3314:	
  3196                           
  3197                           ;Button_src.c: 137:                 RC1 = 1;
  3198  0FB8  1487               	bsf	7,1	;volatile
  3199  0FB9                     l3316:	
  3200                           
  3201                           ;Button_src.c: 138:                 RC2 = 1;
  3202  0FB9  1507               	bsf	7,2	;volatile
  3203  0FBA                     l3318:	
  3204                           
  3205                           ;Button_src.c: 139:                 RC3 = 1;
  3206  0FBA  1587               	bsf	7,3	;volatile
  3207  0FBB                     l3320:	
  3208                           
  3209                           ;Button_src.c: 140:                     if(RC6 == 0){
  3210  0FBB  1B07               	btfsc	7,6	;volatile
  3211  0FBC  2FBE               	goto	u1961
  3212  0FBD  2FBF               	goto	u1960
  3213  0FBE                     u1961:	
  3214  0FBE  2FF1               	goto	l528
  3215  0FBF                     u1960:	
  3216  0FBF                     l3322:	
  3217                           
  3218                           ;Button_src.c: 141:                         var1 = w;
  3219  0FBF  0839               	movf	_w,w
  3220  0FC0  00DA               	movwf	??_thermometer_threshhold_settings
  3221  0FC1  085A               	movf	??_thermometer_threshhold_settings,w
  3222  0FC2  00C1               	movwf	_var1
  3223                           
  3224                           ;Button_src.c: 142:                         var2 = t;
  3225  0FC3  083B               	movf	_t,w
  3226  0FC4  00DA               	movwf	??_thermometer_threshhold_settings
  3227  0FC5  085A               	movf	??_thermometer_threshhold_settings,w
  3228  0FC6  00C0               	movwf	_var2
  3229  0FC7                     l3324:	
  3230                           
  3231                           ;Button_src.c: 144:                         write_cmd(0x1);
  3232  0FC7  3001               	movlw	1
  3233  0FC8  160A  118A  25B1  120A  158A  	fcall	_write_cmd
  3234  0FCD                     l3326:	
  3235                           
  3236                           ;Button_src.c: 145:                         write_char('S');
  3237  0FCD  3053               	movlw	83
  3238  0FCE  160A  118A  2598  120A  158A  	fcall	_write_char
  3239  0FD3                     l3328:	
  3240                           
  3241                           ;Button_src.c: 146:                         write_char('A');
  3242  0FD3  3041               	movlw	65
  3243  0FD4  160A  118A  2598  120A  158A  	fcall	_write_char
  3244  0FD9                     l3330:	
  3245                           
  3246                           ;Button_src.c: 147:                         write_char('V');
  3247  0FD9  3056               	movlw	86
  3248  0FDA  160A  118A  2598  120A  158A  	fcall	_write_char
  3249  0FDF                     l3332:	
  3250                           
  3251                           ;Button_src.c: 148:                         write_char('E');
  3252  0FDF  3045               	movlw	69
  3253  0FE0  160A  118A  2598  120A  158A  	fcall	_write_char
  3254  0FE5                     l3334:	
  3255                           
  3256                           ;Button_src.c: 149:                         write_char('D');
  3257  0FE5  3044               	movlw	68
  3258  0FE6  160A  118A  2598  120A  158A  	fcall	_write_char
  3259  0FEB                     l3336:	
  3260                           
  3261                           ;Button_src.c: 150:                         button_delay();
  3262  0FEB  160A  118A  2540  120A  158A  	fcall	_button_delay
  3263  0FF0  2FFF               	goto	l525
  3264  0FF1                     l528:	
  3265                           ;Button_src.c: 152:                     }
  3266                           
  3267                           
  3268                           ;Button_src.c: 153:             RC0 = 0;
  3269  0FF1  1007               	bcf	7,0	;volatile
  3270                           
  3271                           ;Button_src.c: 154:             RC1 = 1;
  3272  0FF2  1487               	bsf	7,1	;volatile
  3273                           
  3274                           ;Button_src.c: 155:             RC2 = 1;
  3275  0FF3  1507               	bsf	7,2	;volatile
  3276                           
  3277                           ;Button_src.c: 156:             RC3 = 1;
  3278  0FF4  1587               	bsf	7,3	;volatile
  3279                           
  3280                           ;Button_src.c: 157:             if (RC7 == 0 ){
  3281  0FF5  1B87               	btfsc	7,7	;volatile
  3282  0FF6  2FF8               	goto	u1971
  3283  0FF7  2FF9               	goto	u1970
  3284  0FF8                     u1971:	
  3285  0FF8  2E7C               	goto	l3230
  3286  0FF9                     u1970:	
  3287  0FF9                     l3340:	
  3288                           
  3289                           ;Button_src.c: 158:             write_cmd(0x1);
  3290  0FF9  3001               	movlw	1
  3291  0FFA  160A  118A  25B1  120A  158A  	fcall	_write_cmd
  3292  0FFF                     l525:	
  3293  0FFF  0008               	return
  3294  1000                     __end_of_thermometer_threshhold_settings:	
  3295                           
  3296                           	psect	text3
  3297  16C3                     __ptext3:	
  3298 ;; *************** function _decrementor *****************
  3299 ;; Defined at:
  3300 ;;		line 19 in file "math_src.c"
  3301 ;; Parameters:    Size  Location     Type
  3302 ;;  lower_val       2    0[BANK0 ] int 
  3303 ;;  upper_val       2    2[BANK0 ] int 
  3304 ;;  z               1    4[BANK0 ] unsigned char 
  3305 ;; Auto vars:     Size  Location     Type
  3306 ;;		None
  3307 ;; Return value:  Size  Location     Type
  3308 ;;                  1    wreg      unsigned char 
  3309 ;; Registers used:
  3310 ;;		wreg, status,2, status,0, pclath, cstack
  3311 ;; Tracked objects:
  3312 ;;		On entry : 0/0
  3313 ;;		On exit  : 0/0
  3314 ;;		Unchanged: 0/0
  3315 ;; Data sizes:     COMMON   BANK0   BANK1   BANK3   BANK2
  3316 ;;      Params:         0       5       0       0       0
  3317 ;;      Locals:         0       0       0       0       0
  3318 ;;      Temps:          2       0       0       0       0
  3319 ;;      Totals:         2       5       0       0       0
  3320 ;;Total ram usage:        7 bytes
  3321 ;; Hardware stack levels used:    1
  3322 ;; Hardware stack levels required when called:    2
  3323 ;; This function calls:
  3324 ;;		_modulus_func
  3325 ;; This function is called by:
  3326 ;;		_thermometer_threshhold_settings
  3327 ;; This function uses a non-reentrant model
  3328 ;;
  3329                           
  3330                           
  3331                           ;psect for function _decrementor
  3332  16C3                     _decrementor:	
  3333  16C3                     l2890:	
  3334                           ;incstack = 0
  3335                           ; Regs used in _decrementor: [wreg+status,2+status,0+pclath+cstack]
  3336                           
  3337                           
  3338                           ;math_src.c: 20:      if(z == (upper_val + '0')){
  3339  16C3  1283               	bcf	3,5	;RP0=0, select bank0
  3340  16C4  1303               	bcf	3,6	;RP1=0, select bank0
  3341  16C5  0857               	movf	decrementor@upper_val,w
  3342  16C6  3E30               	addlw	48
  3343  16C7  00FB               	movwf	??_decrementor
  3344  16C8  0858               	movf	decrementor@upper_val+1,w
  3345  16C9  1803               	skipnc
  3346  16CA  3E01               	addlw	1
  3347  16CB  3E00               	addlw	0
  3348  16CC  00FC               	movwf	??_decrementor+1
  3349  16CD  0859               	movf	decrementor@z,w
  3350  16CE  067B               	xorwf	??_decrementor,w
  3351  16CF  047C               	iorwf	??_decrementor+1,w
  3352  16D0  1D03               	skipz
  3353  16D1  2ED3               	goto	u1541
  3354  16D2  2ED4               	goto	u1540
  3355  16D3                     u1541:	
  3356  16D3  2EED               	goto	l2896
  3357  16D4                     u1540:	
  3358  16D4                     l2892:	
  3359                           
  3360                           ;math_src.c: 21:         lower_val--;
  3361  16D4  30FF               	movlw	255
  3362  16D5  07D5               	addwf	decrementor@lower_val,f
  3363  16D6  1803               	skipnc
  3364  16D7  0AD6               	incf	decrementor@lower_val+1,f
  3365  16D8  30FF               	movlw	255
  3366  16D9  07D6               	addwf	decrementor@lower_val+1,f
  3367  16DA                     l2894:	
  3368                           
  3369                           ;math_src.c: 22:         lower_val = (modulus_func(lower_val,10));
  3370  16DA  0856               	movf	decrementor@lower_val+1,w
  3371  16DB  00F8               	movwf	modulus_func@x+1
  3372  16DC  0855               	movf	decrementor@lower_val,w
  3373  16DD  00F7               	movwf	modulus_func@x
  3374  16DE  300A               	movlw	10
  3375  16DF  00F9               	movwf	modulus_func@y
  3376  16E0  3000               	movlw	0
  3377  16E1  00FA               	movwf	modulus_func@y+1
  3378  16E2  160A  118A  24E2  160A  118A  	fcall	_modulus_func
  3379  16E7  0878               	movf	?_modulus_func+1,w
  3380  16E8  1283               	bcf	3,5	;RP0=0, select bank0
  3381  16E9  1303               	bcf	3,6	;RP1=0, select bank0
  3382  16EA  00D6               	movwf	decrementor@lower_val+1
  3383  16EB  0877               	movf	?_modulus_func,w
  3384  16EC  00D5               	movwf	decrementor@lower_val
  3385  16ED                     l2896:	
  3386                           
  3387                           ;math_src.c: 24:      return lower_val;
  3388  16ED  0855               	movf	decrementor@lower_val,w
  3389  16EE                     l610:	
  3390  16EE  0008               	return
  3391  16EF                     __end_of_decrementor:	
  3392                           
  3393                           	psect	text4
  3394  0841                     __ptext4:	
  3395 ;; *************** function _set_upper_threshold *****************
  3396 ;; Defined at:
  3397 ;;		line 5 in file "threshold_src.c"
  3398 ;; Parameters:    Size  Location     Type
  3399 ;;  upper_val       2    3[COMMON] int 
  3400 ;;  lower_val       2    5[COMMON] int 
  3401 ;; Auto vars:     Size  Location     Type
  3402 ;;		None
  3403 ;; Return value:  Size  Location     Type
  3404 ;;                  1    wreg      void 
  3405 ;; Registers used:
  3406 ;;		wreg, status,2, status,0, btemp+1, pclath, cstack
  3407 ;; Tracked objects:
  3408 ;;		On entry : 0/0
  3409 ;;		On exit  : 0/0
  3410 ;;		Unchanged: 0/0
  3411 ;; Data sizes:     COMMON   BANK0   BANK1   BANK3   BANK2
  3412 ;;      Params:         4       0       0       0       0
  3413 ;;      Locals:         0       0       0       0       0
  3414 ;;      Temps:          2       0       0       0       0
  3415 ;;      Totals:         6       0       0       0       0
  3416 ;;Total ram usage:        6 bytes
  3417 ;; Hardware stack levels used:    1
  3418 ;; Hardware stack levels required when called:    2
  3419 ;; This function calls:
  3420 ;;		_write_char
  3421 ;; This function is called by:
  3422 ;;		_main
  3423 ;; This function uses a non-reentrant model
  3424 ;;
  3425                           
  3426                           
  3427                           ;psect for function _set_upper_threshold
  3428  0841                     _set_upper_threshold:	
  3429  0841                     l3764:	
  3430                           ;incstack = 0
  3431                           ; Regs used in _set_upper_threshold: [wreg+status,2+status,0+btemp+1+pclath+cstack]
  3432                           
  3433                           
  3434                           ;threshold_src.c: 6:     if(shi == upper_val && ge > lower_val && count == 2){
  3435  0841  1283               	bcf	3,5	;RP0=0, select bank0
  3436  0842  1303               	bcf	3,6	;RP1=0, select bank0
  3437  0843  0850               	movf	_shi,w
  3438  0844  00F7               	movwf	??_set_upper_threshold
  3439  0845  01F8               	clrf	??_set_upper_threshold+1
  3440  0846  0874               	movf	set_upper_threshold@upper_val+1,w
  3441  0847  0678               	xorwf	??_set_upper_threshold+1,w
  3442  0848  1D03               	skipz
  3443  0849  284C               	goto	u2395
  3444  084A  0873               	movf	set_upper_threshold@upper_val,w
  3445  084B  0677               	xorwf	??_set_upper_threshold,w
  3446  084C                     u2395:	
  3447  084C  1D03               	skipz
  3448  084D  284F               	goto	u2391
  3449  084E  2850               	goto	u2390
  3450  084F                     u2391:	
  3451  084F  287E               	goto	l666
  3452  0850                     u2390:	
  3453  0850                     l3766:	
  3454  0850  0876               	movf	set_upper_threshold@lower_val+1,w
  3455  0851  3A80               	xorlw	128
  3456  0852  00F7               	movwf	??_set_upper_threshold
  3457  0853  3080               	movlw	128
  3458  0854  0277               	subwf	??_set_upper_threshold,w
  3459  0855  1D03               	skipz
  3460  0856  2859               	goto	u2405
  3461  0857  084F               	movf	_ge,w
  3462  0858  0275               	subwf	set_upper_threshold@lower_val,w
  3463  0859                     u2405:	
  3464  0859  1803               	skipnc
  3465  085A  285C               	goto	u2401
  3466  085B  285D               	goto	u2400
  3467  085C                     u2401:	
  3468  085C  287E               	goto	l666
  3469  085D                     u2400:	
  3470  085D                     l3768:	
  3471  085D  3002               	movlw	2
  3472  085E  1283               	bcf	3,5	;RP0=0, select bank0
  3473  085F  1303               	bcf	3,6	;RP1=0, select bank0
  3474  0860  0629               	xorwf	_count,w
  3475  0861  042A               	iorwf	_count+1,w
  3476  0862  1D03               	btfss	3,2
  3477  0863  2865               	goto	u2411
  3478  0864  2866               	goto	u2410
  3479  0865                     u2411:	
  3480  0865  287E               	goto	l666
  3481  0866                     u2410:	
  3482  0866                     l3770:	
  3483                           
  3484                           ;threshold_src.c: 9:     write_char('W');
  3485  0866  3057               	movlw	87
  3486  0867  160A  118A  2598  120A  158A  	fcall	_write_char
  3487                           
  3488                           ;threshold_src.c: 10:     write_char('A');
  3489  086C  3041               	movlw	65
  3490  086D  160A  118A  2598  120A  158A  	fcall	_write_char
  3491                           
  3492                           ;threshold_src.c: 11:     write_char('R');
  3493  0872  3052               	movlw	82
  3494  0873  160A  118A  2598  120A  158A  	fcall	_write_char
  3495                           
  3496                           ;threshold_src.c: 12:     write_char('M');
  3497  0878  304D               	movlw	77
  3498  0879  160A  118A  2598  120A  158A  	fcall	_write_char
  3499  087E                     l666:	
  3500  087E  0008               	return
  3501  087F                     __end_of_set_upper_threshold:	
  3502                           
  3503                           	psect	text5
  3504  08C3                     __ptext5:	
  3505 ;; *************** function _set_lower_threshold *****************
  3506 ;; Defined at:
  3507 ;;		line 17 in file "threshold_src.c"
  3508 ;; Parameters:    Size  Location     Type
  3509 ;;  upper_val       2    3[COMMON] int 
  3510 ;;  lower_val       2    5[COMMON] int 
  3511 ;; Auto vars:     Size  Location     Type
  3512 ;;		None
  3513 ;; Return value:  Size  Location     Type
  3514 ;;                  1    wreg      void 
  3515 ;; Registers used:
  3516 ;;		wreg, status,2, status,0, btemp+1, pclath, cstack
  3517 ;; Tracked objects:
  3518 ;;		On entry : 0/0
  3519 ;;		On exit  : 0/0
  3520 ;;		Unchanged: 0/0
  3521 ;; Data sizes:     COMMON   BANK0   BANK1   BANK3   BANK2
  3522 ;;      Params:         4       0       0       0       0
  3523 ;;      Locals:         0       0       0       0       0
  3524 ;;      Temps:          2       0       0       0       0
  3525 ;;      Totals:         6       0       0       0       0
  3526 ;;Total ram usage:        6 bytes
  3527 ;; Hardware stack levels used:    1
  3528 ;; Hardware stack levels required when called:    2
  3529 ;; This function calls:
  3530 ;;		_write_char
  3531 ;; This function is called by:
  3532 ;;		_main
  3533 ;; This function uses a non-reentrant model
  3534 ;;
  3535                           
  3536                           
  3537                           ;psect for function _set_lower_threshold
  3538  08C3                     _set_lower_threshold:	
  3539  08C3                     l3748:	
  3540                           ;incstack = 0
  3541                           ; Regs used in _set_lower_threshold: [wreg+status,2+status,0+btemp+1+pclath+cstack]
  3542                           
  3543                           
  3544                           ;threshold_src.c: 18:     if((shi == upper_val && ge < lower_val)|| ge == lower_val)
  3545  08C3  1283               	bcf	3,5	;RP0=0, select bank0
  3546  08C4  1303               	bcf	3,6	;RP1=0, select bank0
  3547  08C5  0850               	movf	_shi,w
  3548  08C6  00F7               	movwf	??_set_lower_threshold
  3549  08C7  01F8               	clrf	??_set_lower_threshold+1
  3550  08C8  0874               	movf	set_lower_threshold@upper_val+1,w
  3551  08C9  0678               	xorwf	??_set_lower_threshold+1,w
  3552  08CA  1D03               	skipz
  3553  08CB  28CE               	goto	u2365
  3554  08CC  0873               	movf	set_lower_threshold@upper_val,w
  3555  08CD  0677               	xorwf	??_set_lower_threshold,w
  3556  08CE                     u2365:	
  3557  08CE  1D03               	skipz
  3558  08CF  28D1               	goto	u2361
  3559  08D0  28D2               	goto	u2360
  3560  08D1                     u2361:	
  3561  08D1  28DD               	goto	l3752
  3562  08D2                     u2360:	
  3563  08D2                     l3750:	
  3564  08D2  0876               	movf	set_lower_threshold@lower_val+1,w
  3565  08D3  3A80               	xorlw	128
  3566  08D4  3C80               	sublw	128
  3567  08D5  1D03               	skipz
  3568  08D6  28D9               	goto	u2375
  3569  08D7  0875               	movf	set_lower_threshold@lower_val,w
  3570  08D8  024F               	subwf	_ge,w
  3571  08D9                     u2375:	
  3572  08D9  1C03               	skipc
  3573  08DA  28DC               	goto	u2371
  3574  08DB  28DD               	goto	u2370
  3575  08DC                     u2371:	
  3576  08DC  28EC               	goto	l3754
  3577  08DD                     u2370:	
  3578  08DD                     l3752:	
  3579  08DD  1283               	bcf	3,5	;RP0=0, select bank0
  3580  08DE  1303               	bcf	3,6	;RP1=0, select bank0
  3581  08DF  084F               	movf	_ge,w
  3582  08E0  00F7               	movwf	??_set_lower_threshold
  3583  08E1  01F8               	clrf	??_set_lower_threshold+1
  3584  08E2  0876               	movf	set_lower_threshold@lower_val+1,w
  3585  08E3  0678               	xorwf	??_set_lower_threshold+1,w
  3586  08E4  1D03               	skipz
  3587  08E5  28E8               	goto	u2385
  3588  08E6  0875               	movf	set_lower_threshold@lower_val,w
  3589  08E7  0677               	xorwf	??_set_lower_threshold,w
  3590  08E8                     u2385:	
  3591  08E8  1D03               	skipz
  3592  08E9  28EB               	goto	u2381
  3593  08EA  28EC               	goto	u2380
  3594  08EB                     u2381:	
  3595  08EB  290E               	goto	l674
  3596  08EC                     u2380:	
  3597  08EC                     l3754:	
  3598                           
  3599                           ;threshold_src.c: 19:     {;threshold_src.c: 20:     count = 2;
  3600  08EC  3002               	movlw	2
  3601  08ED  1283               	bcf	3,5	;RP0=0, select bank0
  3602  08EE  1303               	bcf	3,6	;RP1=0, select bank0
  3603  08EF  00A9               	movwf	_count
  3604  08F0  3000               	movlw	0
  3605  08F1  00AA               	movwf	_count+1
  3606                           
  3607                           ;threshold_src.c: 21:     buzzer_watcher = 'x';
  3608  08F2  3078               	movlw	120
  3609  08F3  00F7               	movwf	??_set_lower_threshold
  3610  08F4  0877               	movf	??_set_lower_threshold,w
  3611  08F5  00C3               	movwf	_buzzer_watcher
  3612  08F6                     l3756:	
  3613                           
  3614                           ;threshold_src.c: 22:     write_char('O');
  3615  08F6  304F               	movlw	79
  3616  08F7  160A  118A  2598  120A  158A  	fcall	_write_char
  3617  08FC                     l3758:	
  3618                           
  3619                           ;threshold_src.c: 23:     write_char('K');
  3620  08FC  304B               	movlw	75
  3621  08FD  160A  118A  2598  120A  158A  	fcall	_write_char
  3622  0902                     l3760:	
  3623                           
  3624                           ;threshold_src.c: 24:     write_char(' ');
  3625  0902  3020               	movlw	32
  3626  0903  160A  118A  2598  120A  158A  	fcall	_write_char
  3627  0908                     l3762:	
  3628                           
  3629                           ;threshold_src.c: 25:     write_char(' ');
  3630  0908  3020               	movlw	32
  3631  0909  160A  118A  2598  120A  158A  	fcall	_write_char
  3632  090E                     l674:	
  3633  090E  0008               	return
  3634  090F                     __end_of_set_lower_threshold:	
  3635                           
  3636                           	psect	text6
  3637  15CA                     __ptext6:	
  3638 ;; *************** function _set_beep_threshhold *****************
  3639 ;; Defined at:
  3640 ;;		line 5 in file "buzzer_src.c"
  3641 ;; Parameters:    Size  Location     Type
  3642 ;;  x               1    wreg     unsigned char 
  3643 ;; Auto vars:     Size  Location     Type
  3644 ;;  x               1    2[COMMON] unsigned char 
  3645 ;; Return value:  Size  Location     Type
  3646 ;;                  1    wreg      void 
  3647 ;; Registers used:
  3648 ;;		wreg, status,2, status,0, btemp+1, pclath, cstack
  3649 ;; Tracked objects:
  3650 ;;		On entry : 0/0
  3651 ;;		On exit  : 0/0
  3652 ;;		Unchanged: 0/0
  3653 ;; Data sizes:     COMMON   BANK0   BANK1   BANK3   BANK2
  3654 ;;      Params:         0       0       0       0       0
  3655 ;;      Locals:         1       0       0       0       0
  3656 ;;      Temps:          0       0       0       0       0
  3657 ;;      Totals:         1       0       0       0       0
  3658 ;;Total ram usage:        1 bytes
  3659 ;; Hardware stack levels used:    1
  3660 ;; Hardware stack levels required when called:    1
  3661 ;; This function calls:
  3662 ;;		_button_delay
  3663 ;; This function is called by:
  3664 ;;		_main
  3665 ;; This function uses a non-reentrant model
  3666 ;;
  3667                           
  3668                           
  3669                           ;psect for function _set_beep_threshhold
  3670  15CA                     _set_beep_threshhold:	
  3671                           
  3672                           ;incstack = 0
  3673                           ; Regs used in _set_beep_threshhold: [wreg+status,2+status,0+btemp+1+pclath+cstack]
  3674                           ;set_beep_threshhold@x stored from wreg
  3675  15CA  00F2               	movwf	set_beep_threshhold@x
  3676  15CB                     l3772:	
  3677                           
  3678                           ;buzzer_src.c: 6:     if (x == 'w'){
  3679  15CB  3077               	movlw	119
  3680  15CC  0672               	xorwf	set_beep_threshhold@x,w
  3681  15CD  1D03               	btfss	3,2
  3682  15CE  2DD0               	goto	u2421
  3683  15CF  2DD1               	goto	u2420
  3684  15D0                     u2421:	
  3685  15D0  2DE9               	goto	l3782
  3686  15D1                     u2420:	
  3687  15D1                     l3774:	
  3688                           
  3689                           ;buzzer_src.c: 7:         RE2 = 1;
  3690  15D1  1283               	bcf	3,5	;RP0=0, select bank0
  3691  15D2  1303               	bcf	3,6	;RP1=0, select bank0
  3692  15D3  1509               	bsf	9,2	;volatile
  3693  15D4                     l3776:	
  3694                           
  3695                           ;buzzer_src.c: 8:         button_delay();
  3696  15D4  160A  118A  2540  160A  118A  	fcall	_button_delay
  3697  15D9                     l3778:	
  3698                           
  3699                           ;buzzer_src.c: 9:         RE2 = 0;
  3700  15D9  1283               	bcf	3,5	;RP0=0, select bank0
  3701  15DA  1303               	bcf	3,6	;RP1=0, select bank0
  3702  15DB  1109               	bcf	9,2	;volatile
  3703                           
  3704                           ;buzzer_src.c: 10:         button_delay();
  3705  15DC  160A  118A  2540  160A  118A  	fcall	_button_delay
  3706  15E1                     l3780:	
  3707                           
  3708                           ;buzzer_src.c: 11:         RE2 = 1;
  3709  15E1  1283               	bcf	3,5	;RP0=0, select bank0
  3710  15E2  1303               	bcf	3,6	;RP1=0, select bank0
  3711  15E3  1509               	bsf	9,2	;volatile
  3712                           
  3713                           ;buzzer_src.c: 12:         button_delay();
  3714  15E4  160A  118A  2540  160A  118A  	fcall	_button_delay
  3715  15E9                     l3782:	
  3716                           
  3717                           ;buzzer_src.c: 13:         RE2 = 0;
  3718  15E9  1283               	bcf	3,5	;RP0=0, select bank0
  3719  15EA  1303               	bcf	3,6	;RP1=0, select bank0
  3720  15EB  1109               	bcf	9,2	;volatile
  3721  15EC                     l415:	
  3722  15EC  0008               	return
  3723  15ED                     __end_of_set_beep_threshhold:	
  3724                           
  3725                           	psect	text7
  3726  14D1                     __ptext7:	
  3727 ;; *************** function _reset_alarm *****************
  3728 ;; Defined at:
  3729 ;;		line 29 in file "threshold_src.c"
  3730 ;; Parameters:    Size  Location     Type
  3731 ;;		None
  3732 ;; Auto vars:     Size  Location     Type
  3733 ;;		None
  3734 ;; Return value:  Size  Location     Type
  3735 ;;                  1    wreg      void 
  3736 ;; Registers used:
  3737 ;;		wreg, status,2
  3738 ;; Tracked objects:
  3739 ;;		On entry : 0/0
  3740 ;;		On exit  : 0/0
  3741 ;;		Unchanged: 0/0
  3742 ;; Data sizes:     COMMON   BANK0   BANK1   BANK3   BANK2
  3743 ;;      Params:         0       0       0       0       0
  3744 ;;      Locals:         0       0       0       0       0
  3745 ;;      Temps:          1       0       0       0       0
  3746 ;;      Totals:         1       0       0       0       0
  3747 ;;Total ram usage:        1 bytes
  3748 ;; Hardware stack levels used:    1
  3749 ;; This function calls:
  3750 ;;		Nothing
  3751 ;; This function is called by:
  3752 ;;		_main
  3753 ;; This function uses a non-reentrant model
  3754 ;;
  3755                           
  3756                           
  3757                           ;psect for function _reset_alarm
  3758  14D1                     _reset_alarm:	
  3759  14D1                     l3788:	
  3760                           ;incstack = 0
  3761                           ; Regs used in _reset_alarm: [wreg+status,2]
  3762                           
  3763                           
  3764                           ;threshold_src.c: 30:     RC0 = 1;
  3765  14D1  1283               	bcf	3,5	;RP0=0, select bank0
  3766  14D2  1303               	bcf	3,6	;RP1=0, select bank0
  3767  14D3  1407               	bsf	7,0	;volatile
  3768                           
  3769                           ;threshold_src.c: 31:     RC1 = 1;
  3770  14D4  1487               	bsf	7,1	;volatile
  3771                           
  3772                           ;threshold_src.c: 32:     RC2 = 1;
  3773  14D5  1507               	bsf	7,2	;volatile
  3774                           
  3775                           ;threshold_src.c: 33:     RC3 = 0;
  3776  14D6  1187               	bcf	7,3	;volatile
  3777                           
  3778                           ;threshold_src.c: 34:     if(RC4 == 0){
  3779  14D7  1A07               	btfsc	7,4	;volatile
  3780  14D8  2CDA               	goto	u2431
  3781  14D9  2CDB               	goto	u2430
  3782  14DA                     u2431:	
  3783  14DA  2CE1               	goto	l678
  3784  14DB                     u2430:	
  3785  14DB                     l3790:	
  3786                           
  3787                           ;threshold_src.c: 35:         count = 0;
  3788  14DB  01A9               	clrf	_count
  3789  14DC  01AA               	clrf	_count+1
  3790  14DD                     l3792:	
  3791                           
  3792                           ;threshold_src.c: 36:         buzzer_watcher = 'x';
  3793  14DD  3078               	movlw	120
  3794  14DE  00F0               	movwf	??_reset_alarm
  3795  14DF  0870               	movf	??_reset_alarm,w
  3796  14E0  00C3               	movwf	_buzzer_watcher
  3797  14E1                     l678:	
  3798  14E1  0008               	return
  3799  14E2                     __end_of_reset_alarm:	
  3800                           
  3801                           	psect	text8
  3802  15ED                     __ptext8:	
  3803 ;; *************** function _lcd_init *****************
  3804 ;; Defined at:
  3805 ;;		line 14 in file "LCD_src.c"
  3806 ;; Parameters:    Size  Location     Type
  3807 ;;		None
  3808 ;; Auto vars:     Size  Location     Type
  3809 ;;  i               2    0        int 
  3810 ;; Return value:  Size  Location     Type
  3811 ;;                  1    wreg      void 
  3812 ;; Registers used:
  3813 ;;		wreg, status,2, status,0, btemp+1, pclath, cstack
  3814 ;; Tracked objects:
  3815 ;;		On entry : 0/0
  3816 ;;		On exit  : 0/0
  3817 ;;		Unchanged: 0/0
  3818 ;; Data sizes:     COMMON   BANK0   BANK1   BANK3   BANK2
  3819 ;;      Params:         0       0       0       0       0
  3820 ;;      Locals:         0       0       0       0       0
  3821 ;;      Temps:          0       0       0       0       0
  3822 ;;      Totals:         0       0       0       0       0
  3823 ;;Total ram usage:        0 bytes
  3824 ;; Hardware stack levels used:    1
  3825 ;; Hardware stack levels required when called:    2
  3826 ;; This function calls:
  3827 ;;		_delay_screen
  3828 ;;		_write_cmd
  3829 ;; This function is called by:
  3830 ;;		_main
  3831 ;; This function uses a non-reentrant model
  3832 ;;
  3833                           
  3834                           
  3835                           ;psect for function _lcd_init
  3836  15ED                     _lcd_init:	
  3837  15ED                     l3030:	
  3838                           ;incstack = 0
  3839                           ; Regs used in _lcd_init: [wreg+status,2+status,0+btemp+1+pclath+cstack]
  3840                           
  3841                           
  3842                           ;LCD_src.c: 16:  int i;;LCD_src.c: 17:  TRISA = 0x00;
  3843  15ED  1683               	bsf	3,5	;RP0=1, select bank1
  3844  15EE  1303               	bcf	3,6	;RP1=0, select bank1
  3845  15EF  0185               	clrf	5	;volatile
  3846  15F0                     l3032:	
  3847                           
  3848                           ;LCD_src.c: 18:  RA0=0;
  3849  15F0  1283               	bcf	3,5	;RP0=0, select bank0
  3850  15F1  1303               	bcf	3,6	;RP1=0, select bank0
  3851  15F2  1005               	bcf	5,0	;volatile
  3852  15F3                     l3034:	
  3853                           
  3854                           ;LCD_src.c: 19:  delay_screen();
  3855  15F3  160A  118A  2556  160A  118A  	fcall	_delay_screen
  3856  15F8                     l3036:	
  3857                           
  3858                           ;LCD_src.c: 20:  RA0=1;
  3859  15F8  1283               	bcf	3,5	;RP0=0, select bank0
  3860  15F9  1303               	bcf	3,6	;RP1=0, select bank0
  3861  15FA  1405               	bsf	5,0	;volatile
  3862  15FB                     l3038:	
  3863                           
  3864                           ;LCD_src.c: 21:  RA2=1;
  3865  15FB  1505               	bsf	5,2	;volatile
  3866  15FC                     l3040:	
  3867                           
  3868                           ;LCD_src.c: 22:  write_cmd(0x30);
  3869  15FC  3030               	movlw	48
  3870  15FD  160A  118A  25B1  160A  118A  	fcall	_write_cmd
  3871  1602                     l3042:	
  3872                           
  3873                           ;LCD_src.c: 23:  write_cmd(0x01);
  3874  1602  3001               	movlw	1
  3875  1603  160A  118A  25B1  160A  118A  	fcall	_write_cmd
  3876  1608                     l3044:	
  3877                           
  3878                           ;LCD_src.c: 24:  write_cmd(0x06);
  3879  1608  3006               	movlw	6
  3880  1609  160A  118A  25B1  160A  118A  	fcall	_write_cmd
  3881  160E                     l3046:	
  3882                           
  3883                           ;LCD_src.c: 25:  write_cmd(0x0c);
  3884  160E  300C               	movlw	12
  3885  160F  160A  118A  25B1  160A  118A  	fcall	_write_cmd
  3886  1614                     l160:	
  3887  1614  0008               	return
  3888  1615                     __end_of_lcd_init:	
  3889                           
  3890                           	psect	text9
  3891  1582                     __ptext9:	
  3892 ;; *************** function _initialise_buttons *****************
  3893 ;; Defined at:
  3894 ;;		line 11 in file "Button_src.c"
  3895 ;; Parameters:    Size  Location     Type
  3896 ;;		None
  3897 ;; Auto vars:     Size  Location     Type
  3898 ;;		None
  3899 ;; Return value:  Size  Location     Type
  3900 ;;                  1    wreg      void 
  3901 ;; Registers used:
  3902 ;;		wreg, status,2
  3903 ;; Tracked objects:
  3904 ;;		On entry : 0/0
  3905 ;;		On exit  : 0/0
  3906 ;;		Unchanged: 0/0
  3907 ;; Data sizes:     COMMON   BANK0   BANK1   BANK3   BANK2
  3908 ;;      Params:         0       0       0       0       0
  3909 ;;      Locals:         0       0       0       0       0
  3910 ;;      Temps:          0       0       0       0       0
  3911 ;;      Totals:         0       0       0       0       0
  3912 ;;Total ram usage:        0 bytes
  3913 ;; Hardware stack levels used:    1
  3914 ;; This function calls:
  3915 ;;		Nothing
  3916 ;; This function is called by:
  3917 ;;		_main
  3918 ;; This function uses a non-reentrant model
  3919 ;;
  3920                           
  3921                           
  3922                           ;psect for function _initialise_buttons
  3923  1582                     _initialise_buttons:	
  3924  1582                     l3048:	
  3925                           ;incstack = 0
  3926                           ; Regs used in _initialise_buttons: [wreg+status,2]
  3927                           
  3928                           
  3929                           ;Button_src.c: 12:     ADCON1 = 0x06;
  3930  1582  3006               	movlw	6
  3931  1583  1683               	bsf	3,5	;RP0=1, select bank1
  3932  1584  1303               	bcf	3,6	;RP1=0, select bank1
  3933  1585  009F               	movwf	31	;volatile
  3934                           
  3935                           ;Button_src.c: 13:     TRISC = 0xf0;
  3936  1586  30F0               	movlw	240
  3937  1587  0087               	movwf	7	;volatile
  3938  1588                     l3050:	
  3939                           
  3940                           ;Button_src.c: 14:     a = 0x00;
  3941  1588  1283               	bcf	3,5	;RP0=0, select bank0
  3942  1589  1303               	bcf	3,6	;RP1=0, select bank0
  3943  158A  01CA               	clrf	_a
  3944  158B                     l3052:	
  3945                           
  3946                           ;Button_src.c: 15:     b = 0x00;
  3947  158B  01C9               	clrf	_b
  3948  158C                     l3054:	
  3949                           
  3950                           ;Button_src.c: 16:     c = 0x00;
  3951  158C  01C8               	clrf	_c
  3952  158D                     l3056:	
  3953                           
  3954                           ;Button_src.c: 17:     z = 0;
  3955  158D  01B3               	clrf	_z
  3956  158E  01B4               	clrf	_z+1
  3957                           
  3958                           ;Button_src.c: 18:     day_low = 12;
  3959  158F  300C               	movlw	12
  3960  1590  00B1               	movwf	_day_low
  3961  1591  3000               	movlw	0
  3962  1592  00B2               	movwf	_day_low+1
  3963                           
  3964                           ;Button_src.c: 19:     stats = 1;
  3965  1593  3001               	movlw	1
  3966  1594  00AB               	movwf	_stats
  3967  1595  3000               	movlw	0
  3968  1596  00AC               	movwf	_stats+1
  3969  1597                     l515:	
  3970  1597  0008               	return
  3971  1598                     __end_of_initialise_buttons:	
  3972                           
  3973                           	psect	text10
  3974  14B1                     __ptext10:	
  3975 ;; *************** function _init_temp *****************
  3976 ;; Defined at:
  3977 ;;		line 6 in file "Thermometer_src.c"
  3978 ;; Parameters:    Size  Location     Type
  3979 ;;		None
  3980 ;; Auto vars:     Size  Location     Type
  3981 ;;		None
  3982 ;; Return value:  Size  Location     Type
  3983 ;;                  1    wreg      void 
  3984 ;; Registers used:
  3985 ;;		status,2
  3986 ;; Tracked objects:
  3987 ;;		On entry : 0/0
  3988 ;;		On exit  : 0/0
  3989 ;;		Unchanged: 0/0
  3990 ;; Data sizes:     COMMON   BANK0   BANK1   BANK3   BANK2
  3991 ;;      Params:         0       0       0       0       0
  3992 ;;      Locals:         0       0       0       0       0
  3993 ;;      Temps:          0       0       0       0       0
  3994 ;;      Totals:         0       0       0       0       0
  3995 ;;Total ram usage:        0 bytes
  3996 ;; Hardware stack levels used:    1
  3997 ;; This function calls:
  3998 ;;		Nothing
  3999 ;; This function is called by:
  4000 ;;		_main
  4001 ;; This function uses a non-reentrant model
  4002 ;;
  4003                           
  4004                           
  4005                           ;psect for function _init_temp
  4006  14B1                     _init_temp:	
  4007  14B1                     l3012:	
  4008                           ;incstack = 0
  4009                           ; Regs used in _init_temp: [status,2]
  4010                           
  4011                           
  4012                           ;Thermometer_src.c: 8:     TRISE=0X00;
  4013  14B1  1683               	bsf	3,5	;RP0=1, select bank1
  4014  14B2  1303               	bcf	3,6	;RP1=0, select bank1
  4015  14B3  0189               	clrf	9	;volatile
  4016                           
  4017                           ;Thermometer_src.c: 9:     PORTE = 0X00;
  4018  14B4  1283               	bcf	3,5	;RP0=0, select bank0
  4019  14B5  1303               	bcf	3,6	;RP1=0, select bank0
  4020  14B6  0189               	clrf	9	;volatile
  4021  14B7                     l249:	
  4022  14B7  0008               	return
  4023  14B8                     __end_of_init_temp:	
  4024                           
  4025                           	psect	text11
  4026  14C8                     __ptext11:	
  4027 ;; *************** function _init *****************
  4028 ;; Defined at:
  4029 ;;		line 5 in file "LCD_src.c"
  4030 ;; Parameters:    Size  Location     Type
  4031 ;;		None
  4032 ;; Auto vars:     Size  Location     Type
  4033 ;;		None
  4034 ;; Return value:  Size  Location     Type
  4035 ;;                  1    wreg      void 
  4036 ;; Registers used:
  4037 ;;		wreg, status,2
  4038 ;; Tracked objects:
  4039 ;;		On entry : 0/0
  4040 ;;		On exit  : 0/0
  4041 ;;		Unchanged: 0/0
  4042 ;; Data sizes:     COMMON   BANK0   BANK1   BANK3   BANK2
  4043 ;;      Params:         0       0       0       0       0
  4044 ;;      Locals:         0       0       0       0       0
  4045 ;;      Temps:          0       0       0       0       0
  4046 ;;      Totals:         0       0       0       0       0
  4047 ;;Total ram usage:        0 bytes
  4048 ;; Hardware stack levels used:    1
  4049 ;; This function calls:
  4050 ;;		Nothing
  4051 ;; This function is called by:
  4052 ;;		_main
  4053 ;; This function uses a non-reentrant model
  4054 ;;
  4055                           
  4056                           
  4057                           ;psect for function _init
  4058  14C8                     _init:	
  4059  14C8                     l3020:	
  4060                           ;incstack = 0
  4061                           ; Regs used in _init: [wreg+status,2]
  4062                           
  4063                           
  4064                           ;LCD_src.c: 7:  ADCON1 = 0X07;
  4065  14C8  3007               	movlw	7
  4066  14C9  1683               	bsf	3,5	;RP0=1, select bank1
  4067  14CA  1303               	bcf	3,6	;RP1=0, select bank1
  4068  14CB  009F               	movwf	31	;volatile
  4069  14CC                     l3022:	
  4070                           
  4071                           ;LCD_src.c: 8:  TRISA0=1;
  4072  14CC  1405               	bsf	5,0	;volatile
  4073  14CD                     l3024:	
  4074                           
  4075                           ;LCD_src.c: 9:  TRISD=0X00;
  4076  14CD  0188               	clrf	8	;volatile
  4077  14CE                     l3026:	
  4078                           
  4079                           ;LCD_src.c: 10:  OPTION_REG=0X00;
  4080  14CE  0181               	clrf	1	;volatile
  4081  14CF                     l3028:	
  4082                           
  4083                           ;LCD_src.c: 11:  TRISE = 0X00;
  4084  14CF  0189               	clrf	9	;volatile
  4085  14D0                     l157:	
  4086  14D0  0008               	return
  4087  14D1                     __end_of_init:	
  4088                           
  4089                           	psect	text12
  4090  16EF                     __ptext12:	
  4091 ;; *************** function _get_time *****************
  4092 ;; Defined at:
  4093 ;;		line 26 in file "clock_src.c"
  4094 ;; Parameters:    Size  Location     Type
  4095 ;;		None
  4096 ;; Auto vars:     Size  Location     Type
  4097 ;;  i               2    6[COMMON] int 
  4098 ;; Return value:  Size  Location     Type
  4099 ;;                  1    wreg      void 
  4100 ;; Registers used:
  4101 ;;		wreg, fsr0l, fsr0h, status,2, status,0, btemp+1, pclath, cstack
  4102 ;; Tracked objects:
  4103 ;;		On entry : 0/0
  4104 ;;		On exit  : 0/0
  4105 ;;		Unchanged: 0/0
  4106 ;; Data sizes:     COMMON   BANK0   BANK1   BANK3   BANK2
  4107 ;;      Params:         0       0       0       0       0
  4108 ;;      Locals:         2       0       0       0       0
  4109 ;;      Temps:          1       0       0       0       0
  4110 ;;      Totals:         3       0       0       0       0
  4111 ;;Total ram usage:        3 bytes
  4112 ;; Hardware stack levels used:    1
  4113 ;; Hardware stack levels required when called:    1
  4114 ;; This function calls:
  4115 ;;		_time_read_1
  4116 ;;		_time_write_1
  4117 ;; This function is called by:
  4118 ;;		_main
  4119 ;; This function uses a non-reentrant model
  4120 ;;
  4121                           
  4122                           
  4123                           ;psect for function _get_time
  4124  16EF                     _get_time:	
  4125  16EF                     l3114:	
  4126                           ;incstack = 0
  4127                           ; Regs used in _get_time: [wreg-fsr0h+status,2+status,0+btemp+1+pclath+cstack]
  4128                           
  4129                           
  4130                           ;clock_src.c: 28:    int i;;clock_src.c: 29:    RB5=1;
  4131  16EF  1283               	bcf	3,5	;RP0=0, select bank0
  4132  16F0  1303               	bcf	3,6	;RP1=0, select bank0
  4133  16F1  1686               	bsf	6,5	;volatile
  4134  16F2                     l3116:	
  4135                           
  4136                           ;clock_src.c: 30:    time_write_1(0xbf);
  4137  16F2  30BF               	movlw	191
  4138  16F3  160A  118A  2615  160A  118A  	fcall	_time_write_1
  4139  16F8                     l3118:	
  4140                           
  4141                           ;clock_src.c: 31:    for(i=0;i<7;i++)
  4142  16F8  01F6               	clrf	get_time@i
  4143  16F9  01F7               	clrf	get_time@i+1
  4144  16FA                     l3124:	
  4145                           
  4146                           ;clock_src.c: 32:      {;clock_src.c: 33:         table1[i]=time_read_1();
  4147  16FA  160A  118A  271D  160A  118A  	fcall	_time_read_1
  4148  16FF  00F5               	movwf	??_get_time
  4149  1700  0876               	movf	get_time@i,w
  4150  1701  3E20               	addlw	(low (_table1| 0))& (0+255)
  4151  1702  0084               	movwf	4
  4152  1703  0875               	movf	??_get_time,w
  4153  1704  1383               	bcf	3,7	;select IRP bank0
  4154  1705  0080               	movwf	0
  4155  1706                     l3126:	
  4156                           
  4157                           ;clock_src.c: 34:      }
  4158  1706  3001               	movlw	1
  4159  1707  07F6               	addwf	get_time@i,f
  4160  1708  1803               	skipnc
  4161  1709  0AF7               	incf	get_time@i+1,f
  4162  170A  3000               	movlw	0
  4163  170B  07F7               	addwf	get_time@i+1,f
  4164  170C                     l3128:	
  4165  170C  0877               	movf	get_time@i+1,w
  4166  170D  3A80               	xorlw	128
  4167  170E  00FF               	movwf	btemp+1
  4168  170F  3080               	movlw	128
  4169  1710  027F               	subwf	btemp+1,w
  4170  1711  1D03               	skipz
  4171  1712  2F15               	goto	u1875
  4172  1713  3007               	movlw	7
  4173  1714  0276               	subwf	get_time@i,w
  4174  1715                     u1875:	
  4175  1715  1C03               	skipc
  4176  1716  2F18               	goto	u1871
  4177  1717  2F19               	goto	u1870
  4178  1718                     u1871:	
  4179  1718  2EFA               	goto	l3124
  4180  1719                     u1870:	
  4181  1719                     l326:	
  4182                           
  4183                           ;clock_src.c: 35:    RB5=0;
  4184  1719  1283               	bcf	3,5	;RP0=0, select bank0
  4185  171A  1303               	bcf	3,6	;RP1=0, select bank0
  4186  171B  1286               	bcf	6,5	;volatile
  4187  171C                     l327:	
  4188  171C  0008               	return
  4189  171D                     __end_of_get_time:	
  4190                           
  4191                           	psect	text13
  4192  171D                     __ptext13:	
  4193 ;; *************** function _time_read_1 *****************
  4194 ;; Defined at:
  4195 ;;		line 132 in file "clock_src.c"
  4196 ;; Parameters:    Size  Location     Type
  4197 ;;		None
  4198 ;; Auto vars:     Size  Location     Type
  4199 ;;  j               2    2[COMMON] int 
  4200 ;;  time_rx         1    4[COMMON] unsigned char 
  4201 ;; Return value:  Size  Location     Type
  4202 ;;                  1    wreg      unsigned char 
  4203 ;; Registers used:
  4204 ;;		wreg, status,2, status,0, btemp+1
  4205 ;; Tracked objects:
  4206 ;;		On entry : 0/0
  4207 ;;		On exit  : 0/0
  4208 ;;		Unchanged: 0/0
  4209 ;; Data sizes:     COMMON   BANK0   BANK1   BANK3   BANK2
  4210 ;;      Params:         0       0       0       0       0
  4211 ;;      Locals:         3       0       0       0       0
  4212 ;;      Temps:          2       0       0       0       0
  4213 ;;      Totals:         5       0       0       0       0
  4214 ;;Total ram usage:        5 bytes
  4215 ;; Hardware stack levels used:    1
  4216 ;; This function calls:
  4217 ;;		Nothing
  4218 ;; This function is called by:
  4219 ;;		_get_time
  4220 ;; This function uses a non-reentrant model
  4221 ;;
  4222                           
  4223                           
  4224                           ;psect for function _time_read_1
  4225  171D                     _time_read_1:	
  4226  171D                     l2846:	
  4227                           ;incstack = 0
  4228                           ; Regs used in _time_read_1: [wreg+status,2+status,0+btemp+1]
  4229                           
  4230                           
  4231                           ;clock_src.c: 134:    unsigned char time_rx=0;
  4232  171D  01F4               	clrf	time_read_1@time_rx
  4233  171E                     l2848:	
  4234                           
  4235                           ;clock_src.c: 135:    int j;;clock_src.c: 136:    TRISB4=1;
  4236  171E  1683               	bsf	3,5	;RP0=1, select bank1
  4237  171F  1303               	bcf	3,6	;RP1=0, select bank1
  4238  1720  1606               	bsf	6,4	;volatile
  4239                           
  4240                           ;clock_src.c: 137:    for(j=0;j<8;j++)
  4241  1721  01F2               	clrf	time_read_1@j
  4242  1722  01F3               	clrf	time_read_1@j+1
  4243  1723                     l344:	
  4244                           
  4245                           ;clock_src.c: 138:       {;clock_src.c: 139:         RB0=0;
  4246  1723  1283               	bcf	3,5	;RP0=0, select bank0
  4247  1724  1303               	bcf	3,6	;RP1=0, select bank0
  4248  1725  1006               	bcf	6,0	;volatile
  4249  1726                     l2854:	
  4250                           
  4251                           ;clock_src.c: 140:         time_rx=time_rx>>1;
  4252  1726  0874               	movf	time_read_1@time_rx,w
  4253  1727  00F0               	movwf	??_time_read_1
  4254  1728  1003               	clrc
  4255  1729  0C70               	rrf	??_time_read_1,w
  4256  172A  00F1               	movwf	??_time_read_1+1
  4257  172B  0871               	movf	??_time_read_1+1,w
  4258  172C  00F4               	movwf	time_read_1@time_rx
  4259  172D                     l2856:	
  4260                           
  4261                           ;clock_src.c: 141:         if(RB4)time_rx=time_rx|0x80;
  4262  172D  1E06               	btfss	6,4	;volatile
  4263  172E  2F30               	goto	u1501
  4264  172F  2F31               	goto	u1500
  4265  1730                     u1501:	
  4266  1730  2F36               	goto	l2860
  4267  1731                     u1500:	
  4268  1731                     l2858:	
  4269  1731  0874               	movf	time_read_1@time_rx,w
  4270  1732  3880               	iorlw	128
  4271  1733  00F0               	movwf	??_time_read_1
  4272  1734  0870               	movf	??_time_read_1,w
  4273  1735  00F4               	movwf	time_read_1@time_rx
  4274  1736                     l2860:	
  4275                           
  4276                           ;clock_src.c: 143:        RB0=1;
  4277  1736  1406               	bsf	6,0	;volatile
  4278  1737                     l2862:	
  4279                           
  4280                           ;clock_src.c: 144:       }
  4281  1737  3001               	movlw	1
  4282  1738  07F2               	addwf	time_read_1@j,f
  4283  1739  1803               	skipnc
  4284  173A  0AF3               	incf	time_read_1@j+1,f
  4285  173B  3000               	movlw	0
  4286  173C  07F3               	addwf	time_read_1@j+1,f
  4287  173D                     l2864:	
  4288  173D  0873               	movf	time_read_1@j+1,w
  4289  173E  3A80               	xorlw	128
  4290  173F  00FF               	movwf	btemp+1
  4291  1740  3080               	movlw	128
  4292  1741  027F               	subwf	btemp+1,w
  4293  1742  1D03               	skipz
  4294  1743  2F46               	goto	u1515
  4295  1744  3008               	movlw	8
  4296  1745  0272               	subwf	time_read_1@j,w
  4297  1746                     u1515:	
  4298  1746  1C03               	skipc
  4299  1747  2F49               	goto	u1511
  4300  1748  2F4A               	goto	u1510
  4301  1749                     u1511:	
  4302  1749  2F23               	goto	l344
  4303  174A                     u1510:	
  4304  174A                     l345:	
  4305                           
  4306                           ;clock_src.c: 145:     TRISB4=0;
  4307  174A  1683               	bsf	3,5	;RP0=1, select bank1
  4308  174B  1303               	bcf	3,6	;RP1=0, select bank1
  4309  174C  1206               	bcf	6,4	;volatile
  4310                           
  4311                           ;clock_src.c: 146:     RB0=0;
  4312  174D  1283               	bcf	3,5	;RP0=0, select bank0
  4313  174E  1303               	bcf	3,6	;RP1=0, select bank0
  4314  174F  1006               	bcf	6,0	;volatile
  4315  1750                     l2866:	
  4316                           
  4317                           ;clock_src.c: 147:     return(time_rx);
  4318  1750  0874               	movf	time_read_1@time_rx,w
  4319  1751                     l347:	
  4320  1751  0008               	return
  4321  1752                     __end_of_time_read_1:	
  4322                           
  4323                           	psect	text14
  4324  0B1B                     __ptext14:	
  4325 ;; *************** function _get_temp *****************
  4326 ;; Defined at:
  4327 ;;		line 89 in file "Thermometer_src.c"
  4328 ;; Parameters:    Size  Location     Type
  4329 ;;		None
  4330 ;; Auto vars:     Size  Location     Type
  4331 ;;  i               2    0        int 
  4332 ;; Return value:  Size  Location     Type
  4333 ;;                  1    wreg      void 
  4334 ;; Registers used:
  4335 ;;		wreg, status,2, status,0, btemp+1, pclath, cstack
  4336 ;; Tracked objects:
  4337 ;;		On entry : 0/0
  4338 ;;		On exit  : 0/0
  4339 ;;		Unchanged: 0/0
  4340 ;; Data sizes:     COMMON   BANK0   BANK1   BANK3   BANK2
  4341 ;;      Params:         0       0       0       0       0
  4342 ;;      Locals:         0       0       0       0       0
  4343 ;;      Temps:          0       4       0       0       0
  4344 ;;      Totals:         0       4       0       0       0
  4345 ;;Total ram usage:        4 bytes
  4346 ;; Hardware stack levels used:    1
  4347 ;; Hardware stack levels required when called:    2
  4348 ;; This function calls:
  4349 ;;		___awdiv
  4350 ;;		___awmod
  4351 ;;		___lwdiv
  4352 ;;		___lwmod
  4353 ;;		_delay2
  4354 ;;		_read_byte
  4355 ;;		_reset_temp
  4356 ;;		_write_byte
  4357 ;; This function is called by:
  4358 ;;		_main
  4359 ;; This function uses a non-reentrant model
  4360 ;;
  4361                           
  4362                           
  4363                           ;psect for function _get_temp
  4364  0B1B                     _get_temp:	
  4365  0B1B                     l3058:	
  4366                           ;incstack = 0
  4367                           ; Regs used in _get_temp: [wreg+status,2+status,0+btemp+1+pclath+cstack]
  4368                           
  4369                           
  4370                           ;Thermometer_src.c: 91: int i;;Thermometer_src.c: 92: TRISE0 =1;
  4371  0B1B  1683               	bsf	3,5	;RP0=1, select bank1
  4372  0B1C  1303               	bcf	3,6	;RP1=0, select bank1
  4373  0B1D  1409               	bsf	9,0	;volatile
  4374  0B1E                     l3060:	
  4375                           
  4376                           ;Thermometer_src.c: 93: reset_temp();
  4377  0B1E  160A  118A  27C6  120A  158A  	fcall	_reset_temp
  4378                           
  4379                           ;Thermometer_src.c: 94: write_byte(0XCC);
  4380  0B23  30CC               	movlw	204
  4381  0B24  120A  158A  2006  120A  158A  	fcall	_write_byte
  4382  0B29                     l3062:	
  4383                           
  4384                           ;Thermometer_src.c: 95: delay2();
  4385  0B29  160A  118A  256C  120A  158A  	fcall	_delay2
  4386  0B2E                     l3064:	
  4387                           
  4388                           ;Thermometer_src.c: 96: write_byte(0X44);
  4389  0B2E  3044               	movlw	68
  4390  0B2F  120A  158A  2006  120A  158A  	fcall	_write_byte
  4391  0B34                     l3066:	
  4392                           
  4393                           ;Thermometer_src.c: 98: reset_temp();
  4394  0B34  160A  118A  27C6  120A  158A  	fcall	_reset_temp
  4395  0B39                     l3068:	
  4396                           
  4397                           ;Thermometer_src.c: 99: write_byte(0XCC);
  4398  0B39  30CC               	movlw	204
  4399  0B3A  120A  158A  2006  120A  158A  	fcall	_write_byte
  4400  0B3F                     l3070:	
  4401                           
  4402                           ;Thermometer_src.c: 100: write_byte(0XBE);
  4403  0B3F  30BE               	movlw	190
  4404  0B40  120A  158A  2006  120A  158A  	fcall	_write_byte
  4405  0B45                     l3072:	
  4406                           
  4407                           ;Thermometer_src.c: 101: TLV=read_byte();
  4408  0B45  160A  118A  278C  120A  158A  	fcall	_read_byte
  4409  0B4A  1283               	bcf	3,5	;RP0=0, select bank0
  4410  0B4B  1303               	bcf	3,6	;RP1=0, select bank0
  4411  0B4C  00D5               	movwf	??_get_temp
  4412  0B4D  0855               	movf	??_get_temp,w
  4413  0B4E  00D4               	movwf	_TLV
  4414  0B4F                     l3074:	
  4415                           
  4416                           ;Thermometer_src.c: 102: THV=read_byte();
  4417  0B4F  160A  118A  278C  120A  158A  	fcall	_read_byte
  4418  0B54  1283               	bcf	3,5	;RP0=0, select bank0
  4419  0B55  1303               	bcf	3,6	;RP1=0, select bank0
  4420  0B56  00D5               	movwf	??_get_temp
  4421  0B57  0855               	movf	??_get_temp,w
  4422  0B58  00D3               	movwf	_THV
  4423  0B59                     l3076:	
  4424                           
  4425                           ;Thermometer_src.c: 103: TRISE0 =1;
  4426  0B59  1683               	bsf	3,5	;RP0=1, select bank1
  4427  0B5A  1303               	bcf	3,6	;RP1=0, select bank1
  4428  0B5B  1409               	bsf	9,0	;volatile
  4429  0B5C                     l3078:	
  4430                           
  4431                           ;Thermometer_src.c: 104: TZ=(TLV>>4)|(THV<<4)&0X3f;
  4432  0B5C  1283               	bcf	3,5	;RP0=0, select bank0
  4433  0B5D  1303               	bcf	3,6	;RP1=0, select bank0
  4434  0B5E  0853               	movf	_THV,w
  4435  0B5F  00D5               	movwf	??_get_temp
  4436  0B60  3004               	movlw	4
  4437  0B61                     u1805:	
  4438  0B61  1003               	clrc
  4439  0B62  0DD5               	rlf	??_get_temp,f
  4440  0B63  3EFF               	addlw	-1
  4441  0B64  1D03               	skipz
  4442  0B65  2B61               	goto	u1805
  4443  0B66  303F               	movlw	63
  4444  0B67  0555               	andwf	??_get_temp,w
  4445  0B68  00D6               	movwf	??_get_temp+1
  4446  0B69  0854               	movf	_TLV,w
  4447  0B6A  00D7               	movwf	??_get_temp+2
  4448  0B6B  3004               	movlw	4
  4449  0B6C                     u1815:	
  4450  0B6C  1003               	clrc
  4451  0B6D  0CD7               	rrf	??_get_temp+2,f
  4452  0B6E  3EFF               	addlw	-1
  4453  0B6F  1D03               	skipz
  4454  0B70  2B6C               	goto	u1815
  4455  0B71  0857               	movf	??_get_temp+2,w
  4456  0B72  0456               	iorwf	??_get_temp+1,w
  4457  0B73  00D8               	movwf	??_get_temp+3
  4458  0B74  0858               	movf	??_get_temp+3,w
  4459  0B75  00D2               	movwf	_TZ
  4460  0B76                     l3080:	
  4461                           
  4462                           ;Thermometer_src.c: 105: TX=TLV<<4;
  4463  0B76  0854               	movf	_TLV,w
  4464  0B77  00D5               	movwf	??_get_temp
  4465  0B78  3003               	movlw	3
  4466  0B79                     u1825:	
  4467  0B79  1003               	clrc
  4468  0B7A  0DD5               	rlf	??_get_temp,f
  4469  0B7B  3EFF               	addlw	-1
  4470  0B7C  1D03               	skipz
  4471  0B7D  2B79               	goto	u1825
  4472  0B7E  1003               	clrc
  4473  0B7F  0D55               	rlf	??_get_temp,w
  4474  0B80  00D6               	movwf	??_get_temp+1
  4475  0B81  0856               	movf	??_get_temp+1,w
  4476  0B82  00D1               	movwf	_TX
  4477  0B83                     l3084:	
  4478                           
  4479                           ;Thermometer_src.c: 107: ge=TZ%10;
  4480  0B83  300A               	movlw	10
  4481  0B84  00F0               	movwf	___awmod@divisor
  4482  0B85  3000               	movlw	0
  4483  0B86  00F1               	movwf	___awmod@divisor+1
  4484  0B87  0852               	movf	_TZ,w
  4485  0B88  00D5               	movwf	??_get_temp
  4486  0B89  01D6               	clrf	??_get_temp+1
  4487  0B8A  0855               	movf	??_get_temp,w
  4488  0B8B  00F2               	movwf	___awmod@dividend
  4489  0B8C  0856               	movf	??_get_temp+1,w
  4490  0B8D  00F3               	movwf	___awmod@dividend+1
  4491  0B8E  120A  158A  210F  120A  158A  	fcall	___awmod
  4492  0B93  0870               	movf	?___awmod,w
  4493  0B94  1283               	bcf	3,5	;RP0=0, select bank0
  4494  0B95  1303               	bcf	3,6	;RP1=0, select bank0
  4495  0B96  00D7               	movwf	??_get_temp+2
  4496  0B97  0857               	movf	??_get_temp+2,w
  4497  0B98  00CF               	movwf	_ge
  4498                           
  4499                           ;Thermometer_src.c: 108: shi=TZ/10;
  4500  0B99  300A               	movlw	10
  4501  0B9A  00F0               	movwf	___awdiv@divisor
  4502  0B9B  3000               	movlw	0
  4503  0B9C  00F1               	movwf	___awdiv@divisor+1
  4504  0B9D  0852               	movf	_TZ,w
  4505  0B9E  00D5               	movwf	??_get_temp
  4506  0B9F  01D6               	clrf	??_get_temp+1
  4507  0BA0  0855               	movf	??_get_temp,w
  4508  0BA1  00F2               	movwf	___awdiv@dividend
  4509  0BA2  0856               	movf	??_get_temp+1,w
  4510  0BA3  00F3               	movwf	___awdiv@dividend+1
  4511  0BA4  120A  158A  2168  120A  158A  	fcall	___awdiv
  4512  0BA9  0870               	movf	?___awdiv,w
  4513  0BAA  1283               	bcf	3,5	;RP0=0, select bank0
  4514  0BAB  1303               	bcf	3,6	;RP1=0, select bank0
  4515  0BAC  00D7               	movwf	??_get_temp+2
  4516  0BAD  0857               	movf	??_get_temp+2,w
  4517  0BAE  00D0               	movwf	_shi
  4518  0BAF                     l3086:	
  4519                           
  4520                           ;Thermometer_src.c: 109: wd=0;
  4521  0BAF  01BD               	clrf	_wd
  4522  0BB0  01BE               	clrf	_wd+1
  4523  0BB1                     l3088:	
  4524                           
  4525                           ;Thermometer_src.c: 110: if (TX & 0x80) wd=wd+5000;
  4526  0BB1  1FD1               	btfss	_TX,7
  4527  0BB2  2BB4               	goto	u1831
  4528  0BB3  2BB5               	goto	u1830
  4529  0BB4                     u1831:	
  4530  0BB4  2BBD               	goto	l3092
  4531  0BB5                     u1830:	
  4532  0BB5                     l3090:	
  4533  0BB5  083D               	movf	_wd,w
  4534  0BB6  3E88               	addlw	136
  4535  0BB7  00BD               	movwf	_wd
  4536  0BB8  083E               	movf	_wd+1,w
  4537  0BB9  1803               	skipnc
  4538  0BBA  3E01               	addlw	1
  4539  0BBB  3E13               	addlw	19
  4540  0BBC  00BE               	movwf	_wd+1
  4541  0BBD                     l3092:	
  4542                           
  4543                           ;Thermometer_src.c: 111: if (TX & 0x40) wd=wd+2500;
  4544  0BBD  1F51               	btfss	_TX,6
  4545  0BBE  2BC0               	goto	u1841
  4546  0BBF  2BC1               	goto	u1840
  4547  0BC0                     u1841:	
  4548  0BC0  2BC9               	goto	l3096
  4549  0BC1                     u1840:	
  4550  0BC1                     l3094:	
  4551  0BC1  083D               	movf	_wd,w
  4552  0BC2  3EC4               	addlw	196
  4553  0BC3  00BD               	movwf	_wd
  4554  0BC4  083E               	movf	_wd+1,w
  4555  0BC5  1803               	skipnc
  4556  0BC6  3E01               	addlw	1
  4557  0BC7  3E09               	addlw	9
  4558  0BC8  00BE               	movwf	_wd+1
  4559  0BC9                     l3096:	
  4560                           
  4561                           ;Thermometer_src.c: 112: if (TX & 0x20) wd=wd+1250;
  4562  0BC9  1ED1               	btfss	_TX,5
  4563  0BCA  2BCC               	goto	u1851
  4564  0BCB  2BCD               	goto	u1850
  4565  0BCC                     u1851:	
  4566  0BCC  2BD5               	goto	l3100
  4567  0BCD                     u1850:	
  4568  0BCD                     l3098:	
  4569  0BCD  083D               	movf	_wd,w
  4570  0BCE  3EE2               	addlw	226
  4571  0BCF  00BD               	movwf	_wd
  4572  0BD0  083E               	movf	_wd+1,w
  4573  0BD1  1803               	skipnc
  4574  0BD2  3E01               	addlw	1
  4575  0BD3  3E04               	addlw	4
  4576  0BD4  00BE               	movwf	_wd+1
  4577  0BD5                     l3100:	
  4578                           
  4579                           ;Thermometer_src.c: 113: if (TX & 0x10) wd=wd+625;
  4580  0BD5  1E51               	btfss	_TX,4
  4581  0BD6  2BD8               	goto	u1861
  4582  0BD7  2BD9               	goto	u1860
  4583  0BD8                     u1861:	
  4584  0BD8  2BE1               	goto	l3104
  4585  0BD9                     u1860:	
  4586  0BD9                     l3102:	
  4587  0BD9  083D               	movf	_wd,w
  4588  0BDA  3E71               	addlw	113
  4589  0BDB  00BD               	movwf	_wd
  4590  0BDC  083E               	movf	_wd+1,w
  4591  0BDD  1803               	skipnc
  4592  0BDE  3E01               	addlw	1
  4593  0BDF  3E02               	addlw	2
  4594  0BE0  00BE               	movwf	_wd+1
  4595  0BE1                     l3104:	
  4596                           
  4597                           ;Thermometer_src.c: 114: shifen=wd/1000;
  4598  0BE1  30E8               	movlw	232
  4599  0BE2  00F6               	movwf	___lwdiv@divisor
  4600  0BE3  3003               	movlw	3
  4601  0BE4  00F7               	movwf	___lwdiv@divisor+1
  4602  0BE5  083E               	movf	_wd+1,w
  4603  0BE6  00F9               	movwf	___lwdiv@dividend+1
  4604  0BE7  083D               	movf	_wd,w
  4605  0BE8  00F8               	movwf	___lwdiv@dividend
  4606  0BE9  120A  158A  207F  120A  158A  	fcall	___lwdiv
  4607  0BEE  0876               	movf	?___lwdiv,w
  4608  0BEF  1283               	bcf	3,5	;RP0=0, select bank0
  4609  0BF0  1303               	bcf	3,6	;RP1=0, select bank0
  4610  0BF1  00D5               	movwf	??_get_temp
  4611  0BF2  0855               	movf	??_get_temp,w
  4612  0BF3  00CE               	movwf	_shifen
  4613  0BF4                     l3106:	
  4614                           
  4615                           ;Thermometer_src.c: 115: baifen=(wd%1000)/100;
  4616  0BF4  3064               	movlw	100
  4617  0BF5  00F6               	movwf	___lwdiv@divisor
  4618  0BF6  3000               	movlw	0
  4619  0BF7  00F7               	movwf	___lwdiv@divisor+1
  4620  0BF8  083E               	movf	_wd+1,w
  4621  0BF9  00F3               	movwf	___lwmod@dividend+1
  4622  0BFA  083D               	movf	_wd,w
  4623  0BFB  00F2               	movwf	___lwmod@dividend
  4624  0BFC  30E8               	movlw	232
  4625  0BFD  00F0               	movwf	___lwmod@divisor
  4626  0BFE  3003               	movlw	3
  4627  0BFF  00F1               	movwf	___lwmod@divisor+1
  4628  0C00  160A  118A  2752  120A  158A  	fcall	___lwmod
  4629  0C05  0871               	movf	?___lwmod+1,w
  4630  0C06  00F9               	movwf	___lwdiv@dividend+1
  4631  0C07  0870               	movf	?___lwmod,w
  4632  0C08  00F8               	movwf	___lwdiv@dividend
  4633  0C09  120A  158A  207F  120A  158A  	fcall	___lwdiv
  4634  0C0E  0876               	movf	?___lwdiv,w
  4635  0C0F  1283               	bcf	3,5	;RP0=0, select bank0
  4636  0C10  1303               	bcf	3,6	;RP1=0, select bank0
  4637  0C11  00D5               	movwf	??_get_temp
  4638  0C12  0855               	movf	??_get_temp,w
  4639  0C13  00CD               	movwf	_baifen
  4640  0C14                     l3108:	
  4641                           
  4642                           ;Thermometer_src.c: 116: qianfen=(wd%100)/10;
  4643  0C14  300A               	movlw	10
  4644  0C15  00F6               	movwf	___lwdiv@divisor
  4645  0C16  3000               	movlw	0
  4646  0C17  00F7               	movwf	___lwdiv@divisor+1
  4647  0C18  083E               	movf	_wd+1,w
  4648  0C19  00F3               	movwf	___lwmod@dividend+1
  4649  0C1A  083D               	movf	_wd,w
  4650  0C1B  00F2               	movwf	___lwmod@dividend
  4651  0C1C  3064               	movlw	100
  4652  0C1D  00F0               	movwf	___lwmod@divisor
  4653  0C1E  3000               	movlw	0
  4654  0C1F  00F1               	movwf	___lwmod@divisor+1
  4655  0C20  160A  118A  2752  120A  158A  	fcall	___lwmod
  4656  0C25  0871               	movf	?___lwmod+1,w
  4657  0C26  00F9               	movwf	___lwdiv@dividend+1
  4658  0C27  0870               	movf	?___lwmod,w
  4659  0C28  00F8               	movwf	___lwdiv@dividend
  4660  0C29  120A  158A  207F  120A  158A  	fcall	___lwdiv
  4661  0C2E  0876               	movf	?___lwdiv,w
  4662  0C2F  1283               	bcf	3,5	;RP0=0, select bank0
  4663  0C30  1303               	bcf	3,6	;RP1=0, select bank0
  4664  0C31  00D5               	movwf	??_get_temp
  4665  0C32  0855               	movf	??_get_temp,w
  4666  0C33  00CC               	movwf	_qianfen
  4667  0C34                     l3110:	
  4668                           
  4669                           ;Thermometer_src.c: 117: wanfen=wd%10;
  4670  0C34  300A               	movlw	10
  4671  0C35  00F0               	movwf	___lwmod@divisor
  4672  0C36  3000               	movlw	0
  4673  0C37  00F1               	movwf	___lwmod@divisor+1
  4674  0C38  083E               	movf	_wd+1,w
  4675  0C39  00F3               	movwf	___lwmod@dividend+1
  4676  0C3A  083D               	movf	_wd,w
  4677  0C3B  00F2               	movwf	___lwmod@dividend
  4678  0C3C  160A  118A  2752  120A  158A  	fcall	___lwmod
  4679  0C41  0870               	movf	?___lwmod,w
  4680  0C42  1283               	bcf	3,5	;RP0=0, select bank0
  4681  0C43  1303               	bcf	3,6	;RP1=0, select bank0
  4682  0C44  00D5               	movwf	??_get_temp
  4683  0C45  0855               	movf	??_get_temp,w
  4684  0C46  00CB               	movwf	_wanfen
  4685  0C47                     l3112:	
  4686                           
  4687                           ;Thermometer_src.c: 118: __nop();
  4688  0C47  0000               	nop
  4689  0C48                     l282:	
  4690  0C48  0008               	return
  4691  0C49                     __end_of_get_temp:	
  4692                           
  4693                           	psect	text15
  4694  0806                     __ptext15:	
  4695 ;; *************** function _write_byte *****************
  4696 ;; Defined at:
  4697 ;;		line 40 in file "Thermometer_src.c"
  4698 ;; Parameters:    Size  Location     Type
  4699 ;;  val             1    wreg     unsigned char 
  4700 ;; Auto vars:     Size  Location     Type
  4701 ;;  val             1    7[COMMON] unsigned char 
  4702 ;;  i               1    8[COMMON] unsigned char 
  4703 ;;  temp            1    6[COMMON] unsigned char 
  4704 ;; Return value:  Size  Location     Type
  4705 ;;                  1    wreg      void 
  4706 ;; Registers used:
  4707 ;;		wreg, status,2, status,0, pclath, cstack
  4708 ;; Tracked objects:
  4709 ;;		On entry : 0/0
  4710 ;;		On exit  : 0/0
  4711 ;;		Unchanged: 0/0
  4712 ;; Data sizes:     COMMON   BANK0   BANK1   BANK3   BANK2
  4713 ;;      Params:         0       0       0       0       0
  4714 ;;      Locals:         3       0       0       0       0
  4715 ;;      Temps:          2       0       0       0       0
  4716 ;;      Totals:         5       0       0       0       0
  4717 ;;Total ram usage:        5 bytes
  4718 ;; Hardware stack levels used:    1
  4719 ;; Hardware stack levels required when called:    1
  4720 ;; This function calls:
  4721 ;;		_delay_temp
  4722 ;; This function is called by:
  4723 ;;		_get_temp
  4724 ;; This function uses a non-reentrant model
  4725 ;;
  4726                           
  4727                           
  4728                           ;psect for function _write_byte
  4729  0806                     _write_byte:	
  4730                           
  4731                           ;incstack = 0
  4732                           ; Regs used in _write_byte: [wreg+status,2+status,0+pclath+cstack]
  4733                           ;write_byte@val stored from wreg
  4734  0806  00F7               	movwf	write_byte@val
  4735  0807                     l2742:	
  4736                           
  4737                           ;Thermometer_src.c: 40: void write_byte(unsigned char val);Thermometer_src.c: 41: {;Ther
      +                          mometer_src.c: 42:  unsigned char i;;Thermometer_src.c: 43:  unsigned char temp;;Thermom
      +                          eter_src.c: 44:  for(i=8;i>0;i--)
  4738  0807  3008               	movlw	8
  4739  0808  00F4               	movwf	??_write_byte
  4740  0809  0874               	movf	??_write_byte,w
  4741  080A  00F8               	movwf	write_byte@i
  4742  080B                     l2748:	
  4743                           
  4744                           ;Thermometer_src.c: 45:  {;Thermometer_src.c: 46:    temp=val&0x01;
  4745  080B  0877               	movf	write_byte@val,w
  4746  080C  3901               	andlw	1
  4747  080D  00F4               	movwf	??_write_byte
  4748  080E  0874               	movf	??_write_byte,w
  4749  080F  00F6               	movwf	write_byte@temp
  4750  0810                     l2750:	
  4751                           
  4752                           ;Thermometer_src.c: 47:    RE0 = 0; TRISE0 = 0;
  4753  0810  1283               	bcf	3,5	;RP0=0, select bank0
  4754  0811  1303               	bcf	3,6	;RP1=0, select bank0
  4755  0812  1009               	bcf	9,0	;volatile
  4756  0813                     l2752:	
  4757  0813  1683               	bsf	3,5	;RP0=1, select bank1
  4758  0814  1303               	bcf	3,6	;RP1=0, select bank1
  4759  0815  1009               	bcf	9,0	;volatile
  4760  0816                     l2754:	
  4761                           
  4762                           ;Thermometer_src.c: 48:    __nop();
  4763  0816  0000               	nop
  4764  0817                     l2756:	
  4765                           
  4766                           ;Thermometer_src.c: 49:    __nop();
  4767  0817  0000               	nop
  4768  0818                     l2758:	
  4769                           
  4770                           ;Thermometer_src.c: 50:    __nop();
  4771  0818  0000               	nop
  4772  0819                     l2760:	
  4773                           
  4774                           ;Thermometer_src.c: 51:    __nop();
  4775  0819  0000               	nop
  4776  081A                     l2762:	
  4777                           
  4778                           ;Thermometer_src.c: 52:    __nop();
  4779  081A  0000               	nop
  4780  081B                     l2764:	
  4781                           
  4782                           ;Thermometer_src.c: 53:    if(temp==1) TRISE0 =1;
  4783  081B  0376               	decf	write_byte@temp,w
  4784  081C  1D03               	btfss	3,2
  4785  081D  281F               	goto	u1451
  4786  081E  2820               	goto	u1450
  4787  081F                     u1451:	
  4788  081F  2823               	goto	l2768
  4789  0820                     u1450:	
  4790  0820                     l2766:	
  4791  0820  1683               	bsf	3,5	;RP0=1, select bank1
  4792  0821  1303               	bcf	3,6	;RP1=0, select bank1
  4793  0822  1409               	bsf	9,0	;volatile
  4794  0823                     l2768:	
  4795                           
  4796                           ;Thermometer_src.c: 54:    delay_temp(2,7);
  4797  0823  3007               	movlw	7
  4798  0824  00F4               	movwf	??_write_byte
  4799  0825  0874               	movf	??_write_byte,w
  4800  0826  00F0               	movwf	delay_temp@y
  4801  0827  3002               	movlw	2
  4802  0828  160A  118A  2506  120A  158A  	fcall	_delay_temp
  4803  082D                     l2770:	
  4804                           
  4805                           ;Thermometer_src.c: 55:    TRISE0 =1;
  4806  082D  1683               	bsf	3,5	;RP0=1, select bank1
  4807  082E  1303               	bcf	3,6	;RP1=0, select bank1
  4808  082F  1409               	bsf	9,0	;volatile
  4809  0830                     l2772:	
  4810                           
  4811                           ;Thermometer_src.c: 56:    __nop();
  4812  0830  0000               	nop
  4813  0831                     l2774:	
  4814                           
  4815                           ;Thermometer_src.c: 57:    __nop();
  4816  0831  0000               	nop
  4817  0832                     l2776:	
  4818                           
  4819                           ;Thermometer_src.c: 58:    val=val>>1;
  4820  0832  0877               	movf	write_byte@val,w
  4821  0833  00F4               	movwf	??_write_byte
  4822  0834  1003               	clrc
  4823  0835  0C74               	rrf	??_write_byte,w
  4824  0836  00F5               	movwf	??_write_byte+1
  4825  0837  0875               	movf	??_write_byte+1,w
  4826  0838  00F7               	movwf	write_byte@val
  4827  0839                     l2778:	
  4828                           
  4829                           ;Thermometer_src.c: 59:   }
  4830  0839  3001               	movlw	1
  4831  083A  02F8               	subwf	write_byte@i,f
  4832  083B                     l2780:	
  4833  083B  0878               	movf	write_byte@i,w
  4834  083C  1D03               	btfss	3,2
  4835  083D  283F               	goto	u1461
  4836  083E  2840               	goto	u1460
  4837  083F                     u1461:	
  4838  083F  280B               	goto	l2748
  4839  0840                     u1460:	
  4840  0840                     l266:	
  4841  0840  0008               	return
  4842  0841                     __end_of_write_byte:	
  4843                           
  4844                           	psect	text16
  4845  17C6                     __ptext16:	
  4846 ;; *************** function _reset_temp *****************
  4847 ;; Defined at:
  4848 ;;		line 25 in file "Thermometer_src.c"
  4849 ;; Parameters:    Size  Location     Type
  4850 ;;		None
  4851 ;; Auto vars:     Size  Location     Type
  4852 ;;  presence        1    5[COMMON] unsigned char 
  4853 ;; Return value:  Size  Location     Type
  4854 ;;                  1    wreg      void 
  4855 ;; Registers used:
  4856 ;;		wreg, status,2, status,0, pclath, cstack
  4857 ;; Tracked objects:
  4858 ;;		On entry : 0/0
  4859 ;;		On exit  : 0/0
  4860 ;;		Unchanged: 0/0
  4861 ;; Data sizes:     COMMON   BANK0   BANK1   BANK3   BANK2
  4862 ;;      Params:         0       0       0       0       0
  4863 ;;      Locals:         1       0       0       0       0
  4864 ;;      Temps:          1       0       0       0       0
  4865 ;;      Totals:         2       0       0       0       0
  4866 ;;Total ram usage:        2 bytes
  4867 ;; Hardware stack levels used:    1
  4868 ;; Hardware stack levels required when called:    1
  4869 ;; This function calls:
  4870 ;;		_delay_temp
  4871 ;; This function is called by:
  4872 ;;		_get_temp
  4873 ;; This function uses a non-reentrant model
  4874 ;;
  4875                           
  4876                           
  4877                           ;psect for function _reset_temp
  4878  17C6                     _reset_temp:	
  4879  17C6                     l2726:	
  4880                           ;incstack = 0
  4881                           ; Regs used in _reset_temp: [wreg+status,2+status,0+pclath+cstack]
  4882                           
  4883                           
  4884                           ;Thermometer_src.c: 27:   char presence=1;
  4885  17C6  01F5               	clrf	reset_temp@presence
  4886  17C7  0AF5               	incf	reset_temp@presence,f
  4887                           
  4888                           ;Thermometer_src.c: 28:   while(presence)
  4889  17C8  2FFA               	goto	l2740
  4890  17C9                     l256:	
  4891                           
  4892                           ;Thermometer_src.c: 29:   {;Thermometer_src.c: 30:     RE0 = 0; TRISE0 = 0 ;
  4893  17C9  1283               	bcf	3,5	;RP0=0, select bank0
  4894  17CA  1303               	bcf	3,6	;RP1=0, select bank0
  4895  17CB  1009               	bcf	9,0	;volatile
  4896  17CC  1683               	bsf	3,5	;RP0=1, select bank1
  4897  17CD  1303               	bcf	3,6	;RP1=0, select bank1
  4898  17CE  1009               	bcf	9,0	;volatile
  4899  17CF                     l2728:	
  4900                           
  4901                           ;Thermometer_src.c: 31:     delay_temp(2,70);
  4902  17CF  3046               	movlw	70
  4903  17D0  00F4               	movwf	??_reset_temp
  4904  17D1  0874               	movf	??_reset_temp,w
  4905  17D2  00F0               	movwf	delay_temp@y
  4906  17D3  3002               	movlw	2
  4907  17D4  160A  118A  2506  160A  118A  	fcall	_delay_temp
  4908  17D9                     l2730:	
  4909                           
  4910                           ;Thermometer_src.c: 32:     TRISE0 =1;
  4911  17D9  1683               	bsf	3,5	;RP0=1, select bank1
  4912  17DA  1303               	bcf	3,6	;RP1=0, select bank1
  4913  17DB  1409               	bsf	9,0	;volatile
  4914                           
  4915                           ;Thermometer_src.c: 33:     delay_temp(2,8);
  4916  17DC  3008               	movlw	8
  4917  17DD  00F4               	movwf	??_reset_temp
  4918  17DE  0874               	movf	??_reset_temp,w
  4919  17DF  00F0               	movwf	delay_temp@y
  4920  17E0  3002               	movlw	2
  4921  17E1  160A  118A  2506  160A  118A  	fcall	_delay_temp
  4922  17E6                     l2732:	
  4923                           
  4924                           ;Thermometer_src.c: 34:     if(RE0==1) presence=1;
  4925  17E6  1283               	bcf	3,5	;RP0=0, select bank0
  4926  17E7  1303               	bcf	3,6	;RP1=0, select bank0
  4927  17E8  1C09               	btfss	9,0	;volatile
  4928  17E9  2FEB               	goto	u1431
  4929  17EA  2FEC               	goto	u1430
  4930  17EB                     u1431:	
  4931  17EB  2FEF               	goto	l2736
  4932  17EC                     u1430:	
  4933  17EC                     l2734:	
  4934  17EC  01F5               	clrf	reset_temp@presence
  4935  17ED  0AF5               	incf	reset_temp@presence,f
  4936  17EE  2FF0               	goto	l2738
  4937  17EF                     l2736:	
  4938  17EF  01F5               	clrf	reset_temp@presence
  4939  17F0                     l2738:	
  4940                           
  4941                           ;Thermometer_src.c: 36:     delay_temp(2,60);
  4942  17F0  303C               	movlw	60
  4943  17F1  00F4               	movwf	??_reset_temp
  4944  17F2  0874               	movf	??_reset_temp,w
  4945  17F3  00F0               	movwf	delay_temp@y
  4946  17F4  3002               	movlw	2
  4947  17F5  160A  118A  2506  160A  118A  	fcall	_delay_temp
  4948  17FA                     l2740:	
  4949                           
  4950                           ;Thermometer_src.c: 28:   while(presence)
  4951  17FA  0875               	movf	reset_temp@presence,w
  4952  17FB  1D03               	btfss	3,2
  4953  17FC  2FFE               	goto	u1441
  4954  17FD  2FFF               	goto	u1440
  4955  17FE                     u1441:	
  4956  17FE  2FC9               	goto	l256
  4957  17FF                     u1440:	
  4958  17FF                     l260:	
  4959  17FF  0008               	return
  4960  1800                     __end_of_reset_temp:	
  4961                           
  4962                           	psect	text17
  4963  178C                     __ptext17:	
  4964 ;; *************** function _read_byte *****************
  4965 ;; Defined at:
  4966 ;;		line 62 in file "Thermometer_src.c"
  4967 ;; Parameters:    Size  Location     Type
  4968 ;;		None
  4969 ;; Auto vars:     Size  Location     Type
  4970 ;;  i               1    6[COMMON] unsigned char 
  4971 ;;  value           1    5[COMMON] unsigned char 
  4972 ;; Return value:  Size  Location     Type
  4973 ;;                  1    wreg      unsigned char 
  4974 ;; Registers used:
  4975 ;;		wreg, status,2, status,0, pclath, cstack
  4976 ;; Tracked objects:
  4977 ;;		On entry : 0/0
  4978 ;;		On exit  : 0/0
  4979 ;;		Unchanged: 0/0
  4980 ;; Data sizes:     COMMON   BANK0   BANK1   BANK3   BANK2
  4981 ;;      Params:         0       0       0       0       0
  4982 ;;      Locals:         2       0       0       0       0
  4983 ;;      Temps:          1       0       0       0       0
  4984 ;;      Totals:         3       0       0       0       0
  4985 ;;Total ram usage:        3 bytes
  4986 ;; Hardware stack levels used:    1
  4987 ;; Hardware stack levels required when called:    1
  4988 ;; This function calls:
  4989 ;;		_delay_temp
  4990 ;; This function is called by:
  4991 ;;		_get_temp
  4992 ;; This function uses a non-reentrant model
  4993 ;;
  4994                           
  4995                           
  4996                           ;psect for function _read_byte
  4997  178C                     _read_byte:	
  4998  178C                     l2782:	
  4999                           ;incstack = 0
  5000                           ; Regs used in _read_byte: [wreg+status,2+status,0+pclath+cstack]
  5001                           
  5002                           
  5003                           ;Thermometer_src.c: 64:  unsigned char i;;Thermometer_src.c: 65:  unsigned char value=0;
  5004  178C  01F5               	clrf	read_byte@value
  5005  178D                     l2784:	
  5006                           
  5007                           ;Thermometer_src.c: 66:  static _Bool j;;Thermometer_src.c: 67:  for(i=8;i>0;i--)
  5008  178D  3008               	movlw	8
  5009  178E  00F4               	movwf	??_read_byte
  5010  178F  0874               	movf	??_read_byte,w
  5011  1790  00F6               	movwf	read_byte@i
  5012  1791                     l2790:	
  5013                           
  5014                           ;Thermometer_src.c: 68:  {;Thermometer_src.c: 69:    value>>=1;
  5015  1791  1003               	clrc
  5016  1792  0CF5               	rrf	read_byte@value,f
  5017  1793                     l2792:	
  5018                           
  5019                           ;Thermometer_src.c: 70:    RE0 = 0; TRISE0 = 0;
  5020  1793  1283               	bcf	3,5	;RP0=0, select bank0
  5021  1794  1303               	bcf	3,6	;RP1=0, select bank0
  5022  1795  1009               	bcf	9,0	;volatile
  5023  1796                     l2794:	
  5024  1796  1683               	bsf	3,5	;RP0=1, select bank1
  5025  1797  1303               	bcf	3,6	;RP1=0, select bank1
  5026  1798  1009               	bcf	9,0	;volatile
  5027  1799                     l2796:	
  5028                           
  5029                           ;Thermometer_src.c: 71:    __nop();
  5030  1799  0000               	nop
  5031  179A                     l2798:	
  5032                           
  5033                           ;Thermometer_src.c: 72:    __nop();
  5034  179A  0000               	nop
  5035  179B                     l2800:	
  5036                           
  5037                           ;Thermometer_src.c: 73:    __nop();
  5038  179B  0000               	nop
  5039  179C                     l2802:	
  5040                           
  5041                           ;Thermometer_src.c: 74:    __nop();
  5042  179C  0000               	nop
  5043  179D                     l2804:	
  5044                           
  5045                           ;Thermometer_src.c: 75:    __nop();
  5046  179D  0000               	nop
  5047  179E                     l2806:	
  5048                           
  5049                           ;Thermometer_src.c: 76:    __nop();
  5050  179E  0000               	nop
  5051  179F                     l2808:	
  5052                           
  5053                           ;Thermometer_src.c: 77:    TRISE0 =1;
  5054  179F  1683               	bsf	3,5	;RP0=1, select bank1
  5055  17A0  1303               	bcf	3,6	;RP1=0, select bank1
  5056  17A1  1409               	bsf	9,0	;volatile
  5057  17A2                     l2810:	
  5058                           
  5059                           ;Thermometer_src.c: 78:    __nop();
  5060  17A2  0000               	nop
  5061  17A3                     l2812:	
  5062                           
  5063                           ;Thermometer_src.c: 79:    __nop();
  5064  17A3  0000               	nop
  5065  17A4                     l2814:	
  5066                           
  5067                           ;Thermometer_src.c: 80:    __nop();
  5068  17A4  0000               	nop
  5069  17A5                     l2816:	
  5070                           
  5071                           ;Thermometer_src.c: 81:    __nop();
  5072  17A5  0000               	nop
  5073  17A6                     l2818:	
  5074                           
  5075                           ;Thermometer_src.c: 82:    __nop();
  5076  17A6  0000               	nop
  5077  17A7                     l2820:	
  5078                           
  5079                           ;Thermometer_src.c: 83:    j=RE0;
  5080  17A7  3000               	movlw	0
  5081  17A8  1283               	bcf	3,5	;RP0=0, select bank0
  5082  17A9  1303               	bcf	3,6	;RP1=0, select bank0
  5083  17AA  1809               	btfsc	9,0	;volatile
  5084  17AB  3001               	movlw	1
  5085  17AC  00BF               	movwf	read_byte@j
  5086  17AD                     l2822:	
  5087                           
  5088                           ;Thermometer_src.c: 84:    if(j) value|=0x80;
  5089  17AD  083F               	movf	read_byte@j,w
  5090  17AE  1903               	btfsc	3,2
  5091  17AF  2FB1               	goto	u1471
  5092  17B0  2FB2               	goto	u1470
  5093  17B1                     u1471:	
  5094  17B1  2FB3               	goto	l2826
  5095  17B2                     u1470:	
  5096  17B2                     l2824:	
  5097  17B2  17F5               	bsf	read_byte@value,7
  5098  17B3                     l2826:	
  5099                           
  5100                           ;Thermometer_src.c: 85:    delay_temp(2,7);
  5101  17B3  3007               	movlw	7
  5102  17B4  00F4               	movwf	??_read_byte
  5103  17B5  0874               	movf	??_read_byte,w
  5104  17B6  00F0               	movwf	delay_temp@y
  5105  17B7  3002               	movlw	2
  5106  17B8  160A  118A  2506  160A  118A  	fcall	_delay_temp
  5107  17BD                     l2828:	
  5108                           
  5109                           ;Thermometer_src.c: 86:   }
  5110  17BD  3001               	movlw	1
  5111  17BE  02F6               	subwf	read_byte@i,f
  5112  17BF                     l2830:	
  5113  17BF  0876               	movf	read_byte@i,w
  5114  17C0  1D03               	btfss	3,2
  5115  17C1  2FC3               	goto	u1481
  5116  17C2  2FC4               	goto	u1480
  5117  17C3                     u1481:	
  5118  17C3  2F91               	goto	l2790
  5119  17C4                     u1480:	
  5120  17C4                     l2832:	
  5121                           
  5122                           ;Thermometer_src.c: 87:   return(value);
  5123  17C4  0875               	movf	read_byte@value,w
  5124  17C5                     l274:	
  5125  17C5  0008               	return
  5126  17C6                     __end_of_read_byte:	
  5127                           
  5128                           	psect	text18
  5129  1506                     __ptext18:	
  5130 ;; *************** function _delay_temp *****************
  5131 ;; Defined at:
  5132 ;;		line 121 in file "Thermometer_src.c"
  5133 ;; Parameters:    Size  Location     Type
  5134 ;;  x               1    wreg     unsigned char 
  5135 ;;  y               1    0[COMMON] unsigned char 
  5136 ;; Auto vars:     Size  Location     Type
  5137 ;;  x               1    2[COMMON] unsigned char 
  5138 ;;  z               1    3[COMMON] unsigned char 
  5139 ;; Return value:  Size  Location     Type
  5140 ;;                  1    wreg      void 
  5141 ;; Registers used:
  5142 ;;		wreg, status,2, status,0
  5143 ;; Tracked objects:
  5144 ;;		On entry : 0/0
  5145 ;;		On exit  : 0/0
  5146 ;;		Unchanged: 0/0
  5147 ;; Data sizes:     COMMON   BANK0   BANK1   BANK3   BANK2
  5148 ;;      Params:         1       0       0       0       0
  5149 ;;      Locals:         2       0       0       0       0
  5150 ;;      Temps:          1       0       0       0       0
  5151 ;;      Totals:         4       0       0       0       0
  5152 ;;Total ram usage:        4 bytes
  5153 ;; Hardware stack levels used:    1
  5154 ;; This function calls:
  5155 ;;		Nothing
  5156 ;; This function is called by:
  5157 ;;		_reset_temp
  5158 ;;		_write_byte
  5159 ;;		_read_byte
  5160 ;; This function uses a non-reentrant model
  5161 ;;
  5162                           
  5163                           
  5164                           ;psect for function _delay_temp
  5165  1506                     _delay_temp:	
  5166                           
  5167                           ;incstack = 0
  5168                           ; Regs used in _delay_temp: [wreg+status,2+status,0]
  5169                           ;delay_temp@x stored from wreg
  5170  1506  00F2               	movwf	delay_temp@x
  5171  1507                     l285:	
  5172                           ;Thermometer_src.c: 121: void delay_temp(char x, char y);Thermometer_src.c: 122: {;Therm
      +                          ometer_src.c: 123:  char z;;Thermometer_src.c: 124:  do{
  5173                           
  5174  1507                     l2664:	
  5175                           
  5176                           ;Thermometer_src.c: 125:  z=y;
  5177  1507  0870               	movf	delay_temp@y,w
  5178  1508  00F1               	movwf	??_delay_temp
  5179  1509  0871               	movf	??_delay_temp,w
  5180  150A  00F3               	movwf	delay_temp@z
  5181  150B                     l2666:	
  5182  150B  3001               	movlw	1
  5183  150C  02F3               	subwf	delay_temp@z,f
  5184  150D  1D03               	btfss	3,2
  5185  150E  2D10               	goto	u1381
  5186  150F  2D11               	goto	u1380
  5187  1510                     u1381:	
  5188  1510  2D0B               	goto	l2666
  5189  1511                     u1380:	
  5190  1511                     l2668:	
  5191                           
  5192                           ;Thermometer_src.c: 127:  }while(--x);
  5193  1511  3001               	movlw	1
  5194  1512  02F2               	subwf	delay_temp@x,f
  5195  1513  1D03               	btfss	3,2
  5196  1514  2D16               	goto	u1391
  5197  1515  2D17               	goto	u1390
  5198  1516                     u1391:	
  5199  1516  2D07               	goto	l285
  5200  1517                     u1390:	
  5201  1517                     l289:	
  5202  1517  0008               	return
  5203  1518                     __end_of_delay_temp:	
  5204                           
  5205                           	psect	text19
  5206  156C                     __ptext19:	
  5207 ;; *************** function _delay2 *****************
  5208 ;; Defined at:
  5209 ;;		line 130 in file "Thermometer_src.c"
  5210 ;; Parameters:    Size  Location     Type
  5211 ;;		None
  5212 ;; Auto vars:     Size  Location     Type
  5213 ;;  i               2    0[COMMON] int 
  5214 ;; Return value:  Size  Location     Type
  5215 ;;                  1    wreg      void 
  5216 ;; Registers used:
  5217 ;;		wreg, status,2, btemp+1
  5218 ;; Tracked objects:
  5219 ;;		On entry : 0/0
  5220 ;;		On exit  : 0/0
  5221 ;;		Unchanged: 0/0
  5222 ;; Data sizes:     COMMON   BANK0   BANK1   BANK3   BANK2
  5223 ;;      Params:         0       0       0       0       0
  5224 ;;      Locals:         2       0       0       0       0
  5225 ;;      Temps:          0       0       0       0       0
  5226 ;;      Totals:         2       0       0       0       0
  5227 ;;Total ram usage:        2 bytes
  5228 ;; Hardware stack levels used:    1
  5229 ;; This function calls:
  5230 ;;		Nothing
  5231 ;; This function is called by:
  5232 ;;		_get_temp
  5233 ;; This function uses a non-reentrant model
  5234 ;;
  5235                           
  5236                           
  5237                           ;psect for function _delay2
  5238  156C                     _delay2:	
  5239  156C                     l2836:	
  5240                           ;incstack = 0
  5241                           ; Regs used in _delay2: [wreg+status,2+btemp+1]
  5242                           
  5243                           
  5244                           ;Thermometer_src.c: 131:  for (int i = 0; i<50;i++){
  5245  156C  01F0               	clrf	delay2@i
  5246  156D  01F1               	clrf	delay2@i+1
  5247  156E                     l2842:	
  5248                           
  5249                           ;Thermometer_src.c: 132:  }
  5250  156E  3001               	movlw	1
  5251  156F  07F0               	addwf	delay2@i,f
  5252  1570  1803               	skipnc
  5253  1571  0AF1               	incf	delay2@i+1,f
  5254  1572  3000               	movlw	0
  5255  1573  07F1               	addwf	delay2@i+1,f
  5256  1574                     l2844:	
  5257  1574  0871               	movf	delay2@i+1,w
  5258  1575  3A80               	xorlw	128
  5259  1576  00FF               	movwf	btemp+1
  5260  1577  3080               	movlw	128
  5261  1578  027F               	subwf	btemp+1,w
  5262  1579  1D03               	skipz
  5263  157A  2D7D               	goto	u1495
  5264  157B  3032               	movlw	50
  5265  157C  0270               	subwf	delay2@i,w
  5266  157D                     u1495:	
  5267  157D  1C03               	skipc
  5268  157E  2D80               	goto	u1491
  5269  157F  2D81               	goto	u1490
  5270  1580                     u1491:	
  5271  1580  2D6E               	goto	l2842
  5272  1581                     u1490:	
  5273  1581                     l294:	
  5274  1581  0008               	return
  5275  1582                     __end_of_delay2:	
  5276                           
  5277                           	psect	text20
  5278  1752                     __ptext20:	
  5279 ;; *************** function ___lwmod *****************
  5280 ;; Defined at:
  5281 ;;		line 5 in file "C:\Program Files (x86)\Microchip\xc8\v2.10\pic\sources\c90\common\lwmod.c"
  5282 ;; Parameters:    Size  Location     Type
  5283 ;;  divisor         2    0[COMMON] unsigned int 
  5284 ;;  dividend        2    2[COMMON] unsigned int 
  5285 ;; Auto vars:     Size  Location     Type
  5286 ;;  counter         1    5[COMMON] unsigned char 
  5287 ;; Return value:  Size  Location     Type
  5288 ;;                  2    0[COMMON] unsigned int 
  5289 ;; Registers used:
  5290 ;;		wreg, status,2, status,0
  5291 ;; Tracked objects:
  5292 ;;		On entry : 0/0
  5293 ;;		On exit  : 0/0
  5294 ;;		Unchanged: 0/0
  5295 ;; Data sizes:     COMMON   BANK0   BANK1   BANK3   BANK2
  5296 ;;      Params:         4       0       0       0       0
  5297 ;;      Locals:         1       0       0       0       0
  5298 ;;      Temps:          1       0       0       0       0
  5299 ;;      Totals:         6       0       0       0       0
  5300 ;;Total ram usage:        6 bytes
  5301 ;; Hardware stack levels used:    1
  5302 ;; This function calls:
  5303 ;;		Nothing
  5304 ;; This function is called by:
  5305 ;;		_get_temp
  5306 ;; This function uses a non-reentrant model
  5307 ;;
  5308                           
  5309                           
  5310                           ;psect for function ___lwmod
  5311  1752                     ___lwmod:	
  5312  1752                     l2990:	
  5313                           ;incstack = 0
  5314                           ; Regs used in ___lwmod: [wreg+status,2+status,0]
  5315                           
  5316  1752  0870               	movf	___lwmod@divisor,w
  5317  1753  0471               	iorwf	___lwmod@divisor+1,w
  5318  1754  1903               	btfsc	3,2
  5319  1755  2F57               	goto	u1741
  5320  1756  2F58               	goto	u1740
  5321  1757                     u1741:	
  5322  1757  2F87               	goto	l3008
  5323  1758                     u1740:	
  5324  1758                     l2992:	
  5325  1758  01F5               	clrf	___lwmod@counter
  5326  1759  0AF5               	incf	___lwmod@counter,f
  5327  175A  2F66               	goto	l2998
  5328  175B                     l2994:	
  5329  175B  3001               	movlw	1
  5330  175C                     u1755:	
  5331  175C  1003               	clrc
  5332  175D  0DF0               	rlf	___lwmod@divisor,f
  5333  175E  0DF1               	rlf	___lwmod@divisor+1,f
  5334  175F  3EFF               	addlw	-1
  5335  1760  1D03               	skipz
  5336  1761  2F5C               	goto	u1755
  5337  1762                     l2996:	
  5338  1762  3001               	movlw	1
  5339  1763  00F4               	movwf	??___lwmod
  5340  1764  0874               	movf	??___lwmod,w
  5341  1765  07F5               	addwf	___lwmod@counter,f
  5342  1766                     l2998:	
  5343  1766  1FF1               	btfss	___lwmod@divisor+1,7
  5344  1767  2F69               	goto	u1761
  5345  1768  2F6A               	goto	u1760
  5346  1769                     u1761:	
  5347  1769  2F5B               	goto	l2994
  5348  176A                     u1760:	
  5349  176A                     l3000:	
  5350  176A  0871               	movf	___lwmod@divisor+1,w
  5351  176B  0273               	subwf	___lwmod@dividend+1,w
  5352  176C  1D03               	skipz
  5353  176D  2F70               	goto	u1775
  5354  176E  0870               	movf	___lwmod@divisor,w
  5355  176F  0272               	subwf	___lwmod@dividend,w
  5356  1770                     u1775:	
  5357  1770  1C03               	skipc
  5358  1771  2F73               	goto	u1771
  5359  1772  2F74               	goto	u1770
  5360  1773                     u1771:	
  5361  1773  2F7A               	goto	l3004
  5362  1774                     u1770:	
  5363  1774                     l3002:	
  5364  1774  0870               	movf	___lwmod@divisor,w
  5365  1775  02F2               	subwf	___lwmod@dividend,f
  5366  1776  0871               	movf	___lwmod@divisor+1,w
  5367  1777  1C03               	skipc
  5368  1778  03F3               	decf	___lwmod@dividend+1,f
  5369  1779  02F3               	subwf	___lwmod@dividend+1,f
  5370  177A                     l3004:	
  5371  177A  3001               	movlw	1
  5372  177B                     u1785:	
  5373  177B  1003               	clrc
  5374  177C  0CF1               	rrf	___lwmod@divisor+1,f
  5375  177D  0CF0               	rrf	___lwmod@divisor,f
  5376  177E  3EFF               	addlw	-1
  5377  177F  1D03               	skipz
  5378  1780  2F7B               	goto	u1785
  5379  1781                     l3006:	
  5380  1781  3001               	movlw	1
  5381  1782  02F5               	subwf	___lwmod@counter,f
  5382  1783  1D03               	btfss	3,2
  5383  1784  2F86               	goto	u1791
  5384  1785  2F87               	goto	u1790
  5385  1786                     u1791:	
  5386  1786  2F6A               	goto	l3000
  5387  1787                     u1790:	
  5388  1787                     l3008:	
  5389  1787  0873               	movf	___lwmod@dividend+1,w
  5390  1788  00F1               	movwf	?___lwmod+1
  5391  1789  0872               	movf	___lwmod@dividend,w
  5392  178A  00F0               	movwf	?___lwmod
  5393  178B                     l1062:	
  5394  178B  0008               	return
  5395  178C                     __end_of___lwmod:	
  5396                           
  5397                           	psect	text21
  5398  087F                     __ptext21:	
  5399 ;; *************** function ___lwdiv *****************
  5400 ;; Defined at:
  5401 ;;		line 5 in file "C:\Program Files (x86)\Microchip\xc8\v2.10\pic\sources\c90\common\lwdiv.c"
  5402 ;; Parameters:    Size  Location     Type
  5403 ;;  divisor         2    6[COMMON] unsigned int 
  5404 ;;  dividend        2    8[COMMON] unsigned int 
  5405 ;; Auto vars:     Size  Location     Type
  5406 ;;  quotient        2   11[COMMON] unsigned int 
  5407 ;;  counter         1   13[COMMON] unsigned char 
  5408 ;; Return value:  Size  Location     Type
  5409 ;;                  2    6[COMMON] unsigned int 
  5410 ;; Registers used:
  5411 ;;		wreg, status,2, status,0
  5412 ;; Tracked objects:
  5413 ;;		On entry : 0/0
  5414 ;;		On exit  : 0/0
  5415 ;;		Unchanged: 0/0
  5416 ;; Data sizes:     COMMON   BANK0   BANK1   BANK3   BANK2
  5417 ;;      Params:         4       0       0       0       0
  5418 ;;      Locals:         3       0       0       0       0
  5419 ;;      Temps:          1       0       0       0       0
  5420 ;;      Totals:         8       0       0       0       0
  5421 ;;Total ram usage:        8 bytes
  5422 ;; Hardware stack levels used:    1
  5423 ;; This function calls:
  5424 ;;		Nothing
  5425 ;; This function is called by:
  5426 ;;		_get_temp
  5427 ;; This function uses a non-reentrant model
  5428 ;;
  5429                           
  5430                           
  5431                           ;psect for function ___lwdiv
  5432  087F                     ___lwdiv:	
  5433  087F                     l2964:	
  5434                           ;incstack = 0
  5435                           ; Regs used in ___lwdiv: [wreg+status,2+status,0]
  5436                           
  5437  087F  01FB               	clrf	___lwdiv@quotient
  5438  0880  01FC               	clrf	___lwdiv@quotient+1
  5439  0881                     l2966:	
  5440  0881  0876               	movf	___lwdiv@divisor,w
  5441  0882  0477               	iorwf	___lwdiv@divisor+1,w
  5442  0883  1903               	btfsc	3,2
  5443  0884  2886               	goto	u1671
  5444  0885  2887               	goto	u1670
  5445  0886                     u1671:	
  5446  0886  28BE               	goto	l2986
  5447  0887                     u1670:	
  5448  0887                     l2968:	
  5449  0887  01FD               	clrf	___lwdiv@counter
  5450  0888  0AFD               	incf	___lwdiv@counter,f
  5451  0889  2895               	goto	l2974
  5452  088A                     l2970:	
  5453  088A  3001               	movlw	1
  5454  088B                     u1685:	
  5455  088B  1003               	clrc
  5456  088C  0DF6               	rlf	___lwdiv@divisor,f
  5457  088D  0DF7               	rlf	___lwdiv@divisor+1,f
  5458  088E  3EFF               	addlw	-1
  5459  088F  1D03               	skipz
  5460  0890  288B               	goto	u1685
  5461  0891                     l2972:	
  5462  0891  3001               	movlw	1
  5463  0892  00FA               	movwf	??___lwdiv
  5464  0893  087A               	movf	??___lwdiv,w
  5465  0894  07FD               	addwf	___lwdiv@counter,f
  5466  0895                     l2974:	
  5467  0895  1FF7               	btfss	___lwdiv@divisor+1,7
  5468  0896  2898               	goto	u1691
  5469  0897  2899               	goto	u1690
  5470  0898                     u1691:	
  5471  0898  288A               	goto	l2970
  5472  0899                     u1690:	
  5473  0899                     l2976:	
  5474  0899  3001               	movlw	1
  5475  089A                     u1705:	
  5476  089A  1003               	clrc
  5477  089B  0DFB               	rlf	___lwdiv@quotient,f
  5478  089C  0DFC               	rlf	___lwdiv@quotient+1,f
  5479  089D  3EFF               	addlw	-1
  5480  089E  1D03               	skipz
  5481  089F  289A               	goto	u1705
  5482  08A0  0877               	movf	___lwdiv@divisor+1,w
  5483  08A1  0279               	subwf	___lwdiv@dividend+1,w
  5484  08A2  1D03               	skipz
  5485  08A3  28A6               	goto	u1715
  5486  08A4  0876               	movf	___lwdiv@divisor,w
  5487  08A5  0278               	subwf	___lwdiv@dividend,w
  5488  08A6                     u1715:	
  5489  08A6  1C03               	skipc
  5490  08A7  28A9               	goto	u1711
  5491  08A8  28AA               	goto	u1710
  5492  08A9                     u1711:	
  5493  08A9  28B1               	goto	l2982
  5494  08AA                     u1710:	
  5495  08AA                     l2978:	
  5496  08AA  0876               	movf	___lwdiv@divisor,w
  5497  08AB  02F8               	subwf	___lwdiv@dividend,f
  5498  08AC  0877               	movf	___lwdiv@divisor+1,w
  5499  08AD  1C03               	skipc
  5500  08AE  03F9               	decf	___lwdiv@dividend+1,f
  5501  08AF  02F9               	subwf	___lwdiv@dividend+1,f
  5502  08B0                     l2980:	
  5503  08B0  147B               	bsf	___lwdiv@quotient,0
  5504  08B1                     l2982:	
  5505  08B1  3001               	movlw	1
  5506  08B2                     u1725:	
  5507  08B2  1003               	clrc
  5508  08B3  0CF7               	rrf	___lwdiv@divisor+1,f
  5509  08B4  0CF6               	rrf	___lwdiv@divisor,f
  5510  08B5  3EFF               	addlw	-1
  5511  08B6  1D03               	skipz
  5512  08B7  28B2               	goto	u1725
  5513  08B8                     l2984:	
  5514  08B8  3001               	movlw	1
  5515  08B9  02FD               	subwf	___lwdiv@counter,f
  5516  08BA  1D03               	btfss	3,2
  5517  08BB  28BD               	goto	u1731
  5518  08BC  28BE               	goto	u1730
  5519  08BD                     u1731:	
  5520  08BD  2899               	goto	l2976
  5521  08BE                     u1730:	
  5522  08BE                     l2986:	
  5523  08BE  087C               	movf	___lwdiv@quotient+1,w
  5524  08BF  00F7               	movwf	?___lwdiv+1
  5525  08C0  087B               	movf	___lwdiv@quotient,w
  5526  08C1  00F6               	movwf	?___lwdiv
  5527  08C2                     l1052:	
  5528  08C2  0008               	return
  5529  08C3                     __end_of___lwdiv:	
  5530                           
  5531                           	psect	text22
  5532  0968                     __ptext22:	
  5533 ;; *************** function ___awdiv *****************
  5534 ;; Defined at:
  5535 ;;		line 5 in file "C:\Program Files (x86)\Microchip\xc8\v2.10\pic\sources\c90\common\awdiv.c"
  5536 ;; Parameters:    Size  Location     Type
  5537 ;;  divisor         2    0[COMMON] int 
  5538 ;;  dividend        2    2[COMMON] int 
  5539 ;; Auto vars:     Size  Location     Type
  5540 ;;  quotient        2    7[COMMON] int 
  5541 ;;  sign            1    6[COMMON] unsigned char 
  5542 ;;  counter         1    5[COMMON] unsigned char 
  5543 ;; Return value:  Size  Location     Type
  5544 ;;                  2    0[COMMON] int 
  5545 ;; Registers used:
  5546 ;;		wreg, status,2, status,0
  5547 ;; Tracked objects:
  5548 ;;		On entry : 0/0
  5549 ;;		On exit  : 0/0
  5550 ;;		Unchanged: 0/0
  5551 ;; Data sizes:     COMMON   BANK0   BANK1   BANK3   BANK2
  5552 ;;      Params:         4       0       0       0       0
  5553 ;;      Locals:         4       0       0       0       0
  5554 ;;      Temps:          1       0       0       0       0
  5555 ;;      Totals:         9       0       0       0       0
  5556 ;;Total ram usage:        9 bytes
  5557 ;; Hardware stack levels used:    1
  5558 ;; This function calls:
  5559 ;;		Nothing
  5560 ;; This function is called by:
  5561 ;;		_get_temp
  5562 ;; This function uses a non-reentrant model
  5563 ;;
  5564                           
  5565                           
  5566                           ;psect for function ___awdiv
  5567  0968                     ___awdiv:	
  5568  0968                     l2920:	
  5569                           ;incstack = 0
  5570                           ; Regs used in ___awdiv: [wreg+status,2+status,0]
  5571                           
  5572  0968  01F6               	clrf	___awdiv@sign
  5573  0969                     l2922:	
  5574  0969  1FF1               	btfss	___awdiv@divisor+1,7
  5575  096A  296C               	goto	u1571
  5576  096B  296D               	goto	u1570
  5577  096C                     u1571:	
  5578  096C  2974               	goto	l2928
  5579  096D                     u1570:	
  5580  096D                     l2924:	
  5581  096D  09F0               	comf	___awdiv@divisor,f
  5582  096E  09F1               	comf	___awdiv@divisor+1,f
  5583  096F  0AF0               	incf	___awdiv@divisor,f
  5584  0970  1903               	skipnz
  5585  0971  0AF1               	incf	___awdiv@divisor+1,f
  5586  0972                     l2926:	
  5587  0972  01F6               	clrf	___awdiv@sign
  5588  0973  0AF6               	incf	___awdiv@sign,f
  5589  0974                     l2928:	
  5590  0974  1FF3               	btfss	___awdiv@dividend+1,7
  5591  0975  2977               	goto	u1581
  5592  0976  2978               	goto	u1580
  5593  0977                     u1581:	
  5594  0977  2981               	goto	l2934
  5595  0978                     u1580:	
  5596  0978                     l2930:	
  5597  0978  09F2               	comf	___awdiv@dividend,f
  5598  0979  09F3               	comf	___awdiv@dividend+1,f
  5599  097A  0AF2               	incf	___awdiv@dividend,f
  5600  097B  1903               	skipnz
  5601  097C  0AF3               	incf	___awdiv@dividend+1,f
  5602  097D                     l2932:	
  5603  097D  3001               	movlw	1
  5604  097E  00F4               	movwf	??___awdiv
  5605  097F  0874               	movf	??___awdiv,w
  5606  0980  06F6               	xorwf	___awdiv@sign,f
  5607  0981                     l2934:	
  5608  0981  01F7               	clrf	___awdiv@quotient
  5609  0982  01F8               	clrf	___awdiv@quotient+1
  5610  0983                     l2936:	
  5611  0983  0870               	movf	___awdiv@divisor,w
  5612  0984  0471               	iorwf	___awdiv@divisor+1,w
  5613  0985  1903               	btfsc	3,2
  5614  0986  2988               	goto	u1591
  5615  0987  2989               	goto	u1590
  5616  0988                     u1591:	
  5617  0988  29C0               	goto	l2956
  5618  0989                     u1590:	
  5619  0989                     l2938:	
  5620  0989  01F5               	clrf	___awdiv@counter
  5621  098A  0AF5               	incf	___awdiv@counter,f
  5622  098B  2997               	goto	l2944
  5623  098C                     l2940:	
  5624  098C  3001               	movlw	1
  5625  098D                     u1605:	
  5626  098D  1003               	clrc
  5627  098E  0DF0               	rlf	___awdiv@divisor,f
  5628  098F  0DF1               	rlf	___awdiv@divisor+1,f
  5629  0990  3EFF               	addlw	-1
  5630  0991  1D03               	skipz
  5631  0992  298D               	goto	u1605
  5632  0993                     l2942:	
  5633  0993  3001               	movlw	1
  5634  0994  00F4               	movwf	??___awdiv
  5635  0995  0874               	movf	??___awdiv,w
  5636  0996  07F5               	addwf	___awdiv@counter,f
  5637  0997                     l2944:	
  5638  0997  1FF1               	btfss	___awdiv@divisor+1,7
  5639  0998  299A               	goto	u1611
  5640  0999  299B               	goto	u1610
  5641  099A                     u1611:	
  5642  099A  298C               	goto	l2940
  5643  099B                     u1610:	
  5644  099B                     l2946:	
  5645  099B  3001               	movlw	1
  5646  099C                     u1625:	
  5647  099C  1003               	clrc
  5648  099D  0DF7               	rlf	___awdiv@quotient,f
  5649  099E  0DF8               	rlf	___awdiv@quotient+1,f
  5650  099F  3EFF               	addlw	-1
  5651  09A0  1D03               	skipz
  5652  09A1  299C               	goto	u1625
  5653  09A2  0871               	movf	___awdiv@divisor+1,w
  5654  09A3  0273               	subwf	___awdiv@dividend+1,w
  5655  09A4  1D03               	skipz
  5656  09A5  29A8               	goto	u1635
  5657  09A6  0870               	movf	___awdiv@divisor,w
  5658  09A7  0272               	subwf	___awdiv@dividend,w
  5659  09A8                     u1635:	
  5660  09A8  1C03               	skipc
  5661  09A9  29AB               	goto	u1631
  5662  09AA  29AC               	goto	u1630
  5663  09AB                     u1631:	
  5664  09AB  29B3               	goto	l2952
  5665  09AC                     u1630:	
  5666  09AC                     l2948:	
  5667  09AC  0870               	movf	___awdiv@divisor,w
  5668  09AD  02F2               	subwf	___awdiv@dividend,f
  5669  09AE  0871               	movf	___awdiv@divisor+1,w
  5670  09AF  1C03               	skipc
  5671  09B0  03F3               	decf	___awdiv@dividend+1,f
  5672  09B1  02F3               	subwf	___awdiv@dividend+1,f
  5673  09B2                     l2950:	
  5674  09B2  1477               	bsf	___awdiv@quotient,0
  5675  09B3                     l2952:	
  5676  09B3  3001               	movlw	1
  5677  09B4                     u1645:	
  5678  09B4  1003               	clrc
  5679  09B5  0CF1               	rrf	___awdiv@divisor+1,f
  5680  09B6  0CF0               	rrf	___awdiv@divisor,f
  5681  09B7  3EFF               	addlw	-1
  5682  09B8  1D03               	skipz
  5683  09B9  29B4               	goto	u1645
  5684  09BA                     l2954:	
  5685  09BA  3001               	movlw	1
  5686  09BB  02F5               	subwf	___awdiv@counter,f
  5687  09BC  1D03               	btfss	3,2
  5688  09BD  29BF               	goto	u1651
  5689  09BE  29C0               	goto	u1650
  5690  09BF                     u1651:	
  5691  09BF  299B               	goto	l2946
  5692  09C0                     u1650:	
  5693  09C0                     l2956:	
  5694  09C0  0876               	movf	___awdiv@sign,w
  5695  09C1  1903               	btfsc	3,2
  5696  09C2  29C4               	goto	u1661
  5697  09C3  29C5               	goto	u1660
  5698  09C4                     u1661:	
  5699  09C4  29CA               	goto	l2960
  5700  09C5                     u1660:	
  5701  09C5                     l2958:	
  5702  09C5  09F7               	comf	___awdiv@quotient,f
  5703  09C6  09F8               	comf	___awdiv@quotient+1,f
  5704  09C7  0AF7               	incf	___awdiv@quotient,f
  5705  09C8  1903               	skipnz
  5706  09C9  0AF8               	incf	___awdiv@quotient+1,f
  5707  09CA                     l2960:	
  5708  09CA  0878               	movf	___awdiv@quotient+1,w
  5709  09CB  00F1               	movwf	?___awdiv+1
  5710  09CC  0877               	movf	___awdiv@quotient,w
  5711  09CD  00F0               	movwf	?___awdiv
  5712  09CE                     l933:	
  5713  09CE  0008               	return
  5714  09CF                     __end_of___awdiv:	
  5715                           
  5716                           	psect	text23
  5717  152B                     __ptext23:	
  5718 ;; *************** function _ds1302_init *****************
  5719 ;; Defined at:
  5720 ;;		line 6 in file "clock_src.c"
  5721 ;; Parameters:    Size  Location     Type
  5722 ;;		None
  5723 ;; Auto vars:     Size  Location     Type
  5724 ;;		None
  5725 ;; Return value:  Size  Location     Type
  5726 ;;                  1    wreg      void 
  5727 ;; Registers used:
  5728 ;;		wreg, status,2, status,0, btemp+1, pclath, cstack
  5729 ;; Tracked objects:
  5730 ;;		On entry : 0/0
  5731 ;;		On exit  : 0/0
  5732 ;;		Unchanged: 0/0
  5733 ;; Data sizes:     COMMON   BANK0   BANK1   BANK3   BANK2
  5734 ;;      Params:         0       0       0       0       0
  5735 ;;      Locals:         0       0       0       0       0
  5736 ;;      Temps:          0       0       0       0       0
  5737 ;;      Totals:         0       0       0       0       0
  5738 ;;Total ram usage:        0 bytes
  5739 ;; Hardware stack levels used:    1
  5740 ;; Hardware stack levels required when called:    1
  5741 ;; This function calls:
  5742 ;;		_time_write_1
  5743 ;; This function is called by:
  5744 ;;		_main
  5745 ;; This function uses a non-reentrant model
  5746 ;;
  5747                           
  5748                           
  5749                           ;psect for function _ds1302_init
  5750  152B                     _ds1302_init:	
  5751  152B                     l3014:	
  5752                           ;incstack = 0
  5753                           ; Regs used in _ds1302_init: [wreg+status,2+status,0+btemp+1+pclath+cstack]
  5754                           
  5755                           
  5756                           ;clock_src.c: 8:    RB0=0;
  5757  152B  1283               	bcf	3,5	;RP0=0, select bank0
  5758  152C  1303               	bcf	3,6	;RP1=0, select bank0
  5759  152D  1006               	bcf	6,0	;volatile
  5760                           
  5761                           ;clock_src.c: 9:    RB5 =0;
  5762  152E  1286               	bcf	6,5	;volatile
  5763                           
  5764                           ;clock_src.c: 10:    RB5=1;
  5765  152F  1686               	bsf	6,5	;volatile
  5766  1530                     l3016:	
  5767                           
  5768                           ;clock_src.c: 11:    time_write_1(0x8e);
  5769  1530  308E               	movlw	142
  5770  1531  160A  118A  2615  160A  118A  	fcall	_time_write_1
  5771                           
  5772                           ;clock_src.c: 12:    time_write_1(0);
  5773  1536  3000               	movlw	0
  5774  1537  160A  118A  2615  160A  118A  	fcall	_time_write_1
  5775  153C                     l3018:	
  5776                           
  5777                           ;clock_src.c: 13:    RB5=0;
  5778  153C  1283               	bcf	3,5	;RP0=0, select bank0
  5779  153D  1303               	bcf	3,6	;RP1=0, select bank0
  5780  153E  1286               	bcf	6,5	;volatile
  5781  153F                     l317:	
  5782  153F  0008               	return
  5783  1540                     __end_of_ds1302_init:	
  5784                           
  5785                           	psect	text24
  5786  1640                     __ptext24:	
  5787 ;; *************** function _display_temp *****************
  5788 ;; Defined at:
  5789 ;;		line 12 in file "Thermometer_src.c"
  5790 ;; Parameters:    Size  Location     Type
  5791 ;;		None
  5792 ;; Auto vars:     Size  Location     Type
  5793 ;;		None
  5794 ;; Return value:  Size  Location     Type
  5795 ;;                  1    wreg      void 
  5796 ;; Registers used:
  5797 ;;		wreg, status,2, status,0, btemp+1, pclath, cstack
  5798 ;; Tracked objects:
  5799 ;;		On entry : 0/0
  5800 ;;		On exit  : 0/0
  5801 ;;		Unchanged: 0/0
  5802 ;; Data sizes:     COMMON   BANK0   BANK1   BANK3   BANK2
  5803 ;;      Params:         0       0       0       0       0
  5804 ;;      Locals:         0       0       0       0       0
  5805 ;;      Temps:          0       0       0       0       0
  5806 ;;      Totals:         0       0       0       0       0
  5807 ;;Total ram usage:        0 bytes
  5808 ;; Hardware stack levels used:    1
  5809 ;; Hardware stack levels required when called:    2
  5810 ;; This function calls:
  5811 ;;		_write_char
  5812 ;; This function is called by:
  5813 ;;		_main
  5814 ;; This function uses a non-reentrant model
  5815 ;;
  5816                           
  5817                           
  5818                           ;psect for function _display_temp
  5819  1640                     _display_temp:	
  5820  1640                     l3130:	
  5821                           ;incstack = 0
  5822                           ; Regs used in _display_temp: [wreg+status,2+status,0+btemp+1+pclath+cstack]
  5823                           
  5824                           
  5825                           ;Thermometer_src.c: 14:  write_char(shi + '0');
  5826  1640  1283               	bcf	3,5	;RP0=0, select bank0
  5827  1641  1303               	bcf	3,6	;RP1=0, select bank0
  5828  1642  0850               	movf	_shi,w
  5829  1643  3E30               	addlw	48
  5830  1644  160A  118A  2598  160A  118A  	fcall	_write_char
  5831                           
  5832                           ;Thermometer_src.c: 16:  write_char(ge + '0');
  5833  1649  1283               	bcf	3,5	;RP0=0, select bank0
  5834  164A  1303               	bcf	3,6	;RP1=0, select bank0
  5835  164B  084F               	movf	_ge,w
  5836  164C  3E30               	addlw	48
  5837  164D  160A  118A  2598  160A  118A  	fcall	_write_char
  5838                           
  5839                           ;Thermometer_src.c: 17:  write_char('.');
  5840  1652  302E               	movlw	46
  5841  1653  160A  118A  2598  160A  118A  	fcall	_write_char
  5842                           
  5843                           ;Thermometer_src.c: 19:  write_char(shifen + '0');
  5844  1658  1283               	bcf	3,5	;RP0=0, select bank0
  5845  1659  1303               	bcf	3,6	;RP1=0, select bank0
  5846  165A  084E               	movf	_shifen,w
  5847  165B  3E30               	addlw	48
  5848  165C  160A  118A  2598  160A  118A  	fcall	_write_char
  5849                           
  5850                           ;Thermometer_src.c: 21:  write_char(baifen + '0');
  5851  1661  1283               	bcf	3,5	;RP0=0, select bank0
  5852  1662  1303               	bcf	3,6	;RP1=0, select bank0
  5853  1663  084D               	movf	_baifen,w
  5854  1664  3E30               	addlw	48
  5855  1665  160A  118A  2598  160A  118A  	fcall	_write_char
  5856  166A                     l252:	
  5857  166A  0008               	return
  5858  166B                     __end_of_display_temp:	
  5859                           
  5860                           	psect	text25
  5861  0020                     __ptext25:	
  5862 ;; *************** function _display_day *****************
  5863 ;; Defined at:
  5864 ;;		line 4 in file "Day_of_week_src.c"
  5865 ;; Parameters:    Size  Location     Type
  5866 ;;  num             2    3[COMMON] int 
  5867 ;; Auto vars:     Size  Location     Type
  5868 ;;		None
  5869 ;; Return value:  Size  Location     Type
  5870 ;;                  1    wreg      void 
  5871 ;; Registers used:
  5872 ;;		wreg, status,2, status,0, btemp+1, pclath, cstack
  5873 ;; Tracked objects:
  5874 ;;		On entry : 0/0
  5875 ;;		On exit  : 0/0
  5876 ;;		Unchanged: 0/0
  5877 ;; Data sizes:     COMMON   BANK0   BANK1   BANK3   BANK2
  5878 ;;      Params:         2       0       0       0       0
  5879 ;;      Locals:         0       0       0       0       0
  5880 ;;      Temps:          0       0       0       0       0
  5881 ;;      Totals:         2       0       0       0       0
  5882 ;;Total ram usage:        2 bytes
  5883 ;; Hardware stack levels used:    1
  5884 ;; Hardware stack levels required when called:    2
  5885 ;; This function calls:
  5886 ;;		_write_char
  5887 ;; This function is called by:
  5888 ;;		_main
  5889 ;; This function uses a non-reentrant model
  5890 ;;
  5891                           
  5892                           
  5893                           ;psect for function _display_day
  5894  0020                     _display_day:	
  5895  0020                     l3794:	
  5896                           ;incstack = 0
  5897                           ; Regs used in _display_day: [wreg+status,2+status,0+btemp+1+pclath+cstack]
  5898                           
  5899                           
  5900                           ;Day_of_week_src.c: 5:     if(num == 1 || num == 0){
  5901  0020  0373               	decf	display_day@num,w
  5902  0021  0474               	iorwf	display_day@num+1,w
  5903  0022  1903               	btfsc	3,2
  5904  0023  2825               	goto	u2441
  5905  0024  2826               	goto	u2440
  5906  0025                     u2441:	
  5907  0025  282C               	goto	l3798
  5908  0026                     u2440:	
  5909  0026                     l3796:	
  5910  0026  0873               	movf	display_day@num,w
  5911  0027  0474               	iorwf	display_day@num+1,w
  5912  0028  1D03               	btfss	3,2
  5913  0029  282B               	goto	u2451
  5914  002A  282C               	goto	u2450
  5915  002B                     u2451:	
  5916  002B  283E               	goto	l3800
  5917  002C                     u2450:	
  5918  002C                     l3798:	
  5919                           
  5920                           ;Day_of_week_src.c: 6:     write_char('M');
  5921  002C  304D               	movlw	77
  5922  002D  160A  118A  2598  120A  118A  	fcall	_write_char
  5923                           
  5924                           ;Day_of_week_src.c: 7:     write_char('o');
  5925  0032  306F               	movlw	111
  5926  0033  160A  118A  2598  120A  118A  	fcall	_write_char
  5927                           
  5928                           ;Day_of_week_src.c: 8:     write_char('n');
  5929  0038  306E               	movlw	110
  5930  0039  160A  118A  2598  120A  118A  	fcall	_write_char
  5931  003E                     l3800:	
  5932                           
  5933                           ;Day_of_week_src.c: 10:     if(num == 2){
  5934  003E  3002               	movlw	2
  5935  003F  0673               	xorwf	display_day@num,w
  5936  0040  0474               	iorwf	display_day@num+1,w
  5937  0041  1D03               	btfss	3,2
  5938  0042  2844               	goto	u2461
  5939  0043  2845               	goto	u2460
  5940  0044                     u2461:	
  5941  0044  2857               	goto	l3804
  5942  0045                     u2460:	
  5943  0045                     l3802:	
  5944                           
  5945                           ;Day_of_week_src.c: 11:     write_char('T');
  5946  0045  3054               	movlw	84
  5947  0046  160A  118A  2598  120A  118A  	fcall	_write_char
  5948                           
  5949                           ;Day_of_week_src.c: 12:     write_char('u');
  5950  004B  3075               	movlw	117
  5951  004C  160A  118A  2598  120A  118A  	fcall	_write_char
  5952                           
  5953                           ;Day_of_week_src.c: 13:     write_char('e');
  5954  0051  3065               	movlw	101
  5955  0052  160A  118A  2598  120A  118A  	fcall	_write_char
  5956  0057                     l3804:	
  5957                           
  5958                           ;Day_of_week_src.c: 15:     if(num == 3){
  5959  0057  3003               	movlw	3
  5960  0058  0673               	xorwf	display_day@num,w
  5961  0059  0474               	iorwf	display_day@num+1,w
  5962  005A  1D03               	btfss	3,2
  5963  005B  285D               	goto	u2471
  5964  005C  285E               	goto	u2470
  5965  005D                     u2471:	
  5966  005D  2870               	goto	l3808
  5967  005E                     u2470:	
  5968  005E                     l3806:	
  5969                           
  5970                           ;Day_of_week_src.c: 16:     write_char('W');
  5971  005E  3057               	movlw	87
  5972  005F  160A  118A  2598  120A  118A  	fcall	_write_char
  5973                           
  5974                           ;Day_of_week_src.c: 17:     write_char('e');
  5975  0064  3065               	movlw	101
  5976  0065  160A  118A  2598  120A  118A  	fcall	_write_char
  5977                           
  5978                           ;Day_of_week_src.c: 18:     write_char('d');
  5979  006A  3064               	movlw	100
  5980  006B  160A  118A  2598  120A  118A  	fcall	_write_char
  5981  0070                     l3808:	
  5982                           
  5983                           ;Day_of_week_src.c: 20:     if(num == 4){
  5984  0070  3004               	movlw	4
  5985  0071  0673               	xorwf	display_day@num,w
  5986  0072  0474               	iorwf	display_day@num+1,w
  5987  0073  1D03               	btfss	3,2
  5988  0074  2876               	goto	u2481
  5989  0075  2877               	goto	u2480
  5990  0076                     u2481:	
  5991  0076  2889               	goto	l3812
  5992  0077                     u2480:	
  5993  0077                     l3810:	
  5994                           
  5995                           ;Day_of_week_src.c: 21:     write_char('T');
  5996  0077  3054               	movlw	84
  5997  0078  160A  118A  2598  120A  118A  	fcall	_write_char
  5998                           
  5999                           ;Day_of_week_src.c: 22:     write_char('h');
  6000  007D  3068               	movlw	104
  6001  007E  160A  118A  2598  120A  118A  	fcall	_write_char
  6002                           
  6003                           ;Day_of_week_src.c: 23:     write_char('u');
  6004  0083  3075               	movlw	117
  6005  0084  160A  118A  2598  120A  118A  	fcall	_write_char
  6006  0089                     l3812:	
  6007                           
  6008                           ;Day_of_week_src.c: 25:     if(num == 5){
  6009  0089  3005               	movlw	5
  6010  008A  0673               	xorwf	display_day@num,w
  6011  008B  0474               	iorwf	display_day@num+1,w
  6012  008C  1D03               	btfss	3,2
  6013  008D  288F               	goto	u2491
  6014  008E  2890               	goto	u2490
  6015  008F                     u2491:	
  6016  008F  28A2               	goto	l3816
  6017  0090                     u2490:	
  6018  0090                     l3814:	
  6019                           
  6020                           ;Day_of_week_src.c: 26:     write_char('F');
  6021  0090  3046               	movlw	70
  6022  0091  160A  118A  2598  120A  118A  	fcall	_write_char
  6023                           
  6024                           ;Day_of_week_src.c: 27:     write_char('r');
  6025  0096  3072               	movlw	114
  6026  0097  160A  118A  2598  120A  118A  	fcall	_write_char
  6027                           
  6028                           ;Day_of_week_src.c: 28:     write_char('i');
  6029  009C  3069               	movlw	105
  6030  009D  160A  118A  2598  120A  118A  	fcall	_write_char
  6031  00A2                     l3816:	
  6032                           
  6033                           ;Day_of_week_src.c: 30:     if(num == 6){
  6034  00A2  3006               	movlw	6
  6035  00A3  0673               	xorwf	display_day@num,w
  6036  00A4  0474               	iorwf	display_day@num+1,w
  6037  00A5  1D03               	btfss	3,2
  6038  00A6  28A8               	goto	u2501
  6039  00A7  28A9               	goto	u2500
  6040  00A8                     u2501:	
  6041  00A8  28BB               	goto	l3820
  6042  00A9                     u2500:	
  6043  00A9                     l3818:	
  6044                           
  6045                           ;Day_of_week_src.c: 31:     write_char('S');
  6046  00A9  3053               	movlw	83
  6047  00AA  160A  118A  2598  120A  118A  	fcall	_write_char
  6048                           
  6049                           ;Day_of_week_src.c: 32:     write_char('a');
  6050  00AF  3061               	movlw	97
  6051  00B0  160A  118A  2598  120A  118A  	fcall	_write_char
  6052                           
  6053                           ;Day_of_week_src.c: 33:     write_char('t');
  6054  00B5  3074               	movlw	116
  6055  00B6  160A  118A  2598  120A  118A  	fcall	_write_char
  6056  00BB                     l3820:	
  6057                           
  6058                           ;Day_of_week_src.c: 35:     if(num == 7){
  6059  00BB  3007               	movlw	7
  6060  00BC  0673               	xorwf	display_day@num,w
  6061  00BD  0474               	iorwf	display_day@num+1,w
  6062  00BE  1D03               	btfss	3,2
  6063  00BF  28C1               	goto	u2511
  6064  00C0  28C2               	goto	u2510
  6065  00C1                     u2511:	
  6066  00C1  28D4               	goto	l694
  6067  00C2                     u2510:	
  6068  00C2                     l3822:	
  6069                           
  6070                           ;Day_of_week_src.c: 36:     write_char('S');
  6071  00C2  3053               	movlw	83
  6072  00C3  160A  118A  2598  120A  118A  	fcall	_write_char
  6073                           
  6074                           ;Day_of_week_src.c: 37:     write_char('u');
  6075  00C8  3075               	movlw	117
  6076  00C9  160A  118A  2598  120A  118A  	fcall	_write_char
  6077                           
  6078                           ;Day_of_week_src.c: 38:     write_char('n');
  6079  00CE  306E               	movlw	110
  6080  00CF  160A  118A  2598  120A  118A  	fcall	_write_char
  6081  00D4                     l694:	
  6082  00D4  0008               	return
  6083  00D5                     __end_of_display_day:	
  6084                           
  6085                           	psect	text26
  6086  0A75                     __ptext26:	
  6087 ;; *************** function _display_date *****************
  6088 ;; Defined at:
  6089 ;;		line 79 in file "clock_src.c"
  6090 ;; Parameters:    Size  Location     Type
  6091 ;;		None
  6092 ;; Auto vars:     Size  Location     Type
  6093 ;;  i               2    5[COMMON] int 
  6094 ;; Return value:  Size  Location     Type
  6095 ;;                  1    wreg      void 
  6096 ;; Registers used:
  6097 ;;		wreg, status,2, status,0, btemp+1, pclath, cstack
  6098 ;; Tracked objects:
  6099 ;;		On entry : 0/0
  6100 ;;		On exit  : 0/0
  6101 ;;		Unchanged: 0/0
  6102 ;; Data sizes:     COMMON   BANK0   BANK1   BANK3   BANK2
  6103 ;;      Params:         0       0       0       0       0
  6104 ;;      Locals:         2       0       0       0       0
  6105 ;;      Temps:          2       0       0       0       0
  6106 ;;      Totals:         4       0       0       0       0
  6107 ;;Total ram usage:        4 bytes
  6108 ;; Hardware stack levels used:    1
  6109 ;; Hardware stack levels required when called:    2
  6110 ;; This function calls:
  6111 ;;		_write_char
  6112 ;; This function is called by:
  6113 ;;		_main
  6114 ;; This function uses a non-reentrant model
  6115 ;;
  6116                           
  6117                           
  6118                           ;psect for function _display_date
  6119  0A75                     _display_date:	
  6120  0A75                     l3132:	
  6121                           ;incstack = 0
  6122                           ; Regs used in _display_date: [wreg+status,2+status,0+btemp+1+pclath+cstack]
  6123                           
  6124                           
  6125                           ;clock_src.c: 81:      int i;;clock_src.c: 82:      if(RB1==0)
  6126  0A75  1283               	bcf	3,5	;RP0=0, select bank0
  6127  0A76  1303               	bcf	3,6	;RP1=0, select bank0
  6128  0A77  1886               	btfsc	6,1	;volatile
  6129  0A78  2A7A               	goto	u1881
  6130  0A79  2A7B               	goto	u1880
  6131  0A7A                     u1881:	
  6132  0A7A  2A83               	goto	l3136
  6133  0A7B                     u1880:	
  6134  0A7B                     l3134:	
  6135                           
  6136                           ;clock_src.c: 83:        {;clock_src.c: 84:           table1[0]=table1[3];
  6137  0A7B  0823               	movf	_table1+3,w
  6138  0A7C  00F3               	movwf	??_display_date
  6139  0A7D  0873               	movf	??_display_date,w
  6140  0A7E  00A0               	movwf	_table1
  6141                           
  6142                           ;clock_src.c: 85:           table1[1]=table1[4];
  6143  0A7F  0824               	movf	_table1+4,w
  6144  0A80  00F3               	movwf	??_display_date
  6145  0A81  0873               	movf	??_display_date,w
  6146  0A82  00A1               	movwf	_table1+1
  6147  0A83                     l3136:	
  6148                           
  6149                           ;clock_src.c: 87:      i=table1[3]&0xf0;
  6150  0A83  0823               	movf	_table1+3,w
  6151  0A84  39F0               	andlw	240
  6152  0A85  00F3               	movwf	??_display_date
  6153  0A86  01F4               	clrf	??_display_date+1
  6154  0A87  0873               	movf	??_display_date,w
  6155  0A88  00F5               	movwf	display_date@i
  6156  0A89  0874               	movf	??_display_date+1,w
  6157  0A8A  00F6               	movwf	display_date@i+1
  6158  0A8B                     l3138:	
  6159                           
  6160                           ;clock_src.c: 88:      i=i>>4;
  6161  0A8B  0E75               	swapf	display_date@i,w
  6162  0A8C  390F               	andlw	15
  6163  0A8D  00F5               	movwf	display_date@i
  6164  0A8E  0E76               	swapf	display_date@i+1,w
  6165  0A8F  39F0               	andlw	240
  6166  0A90  04F5               	iorwf	display_date@i,f
  6167  0A91  0E76               	swapf	display_date@i+1,w
  6168  0A92  390F               	andlw	15
  6169  0A93  00F6               	movwf	display_date@i+1
  6170  0A94  30F0               	movlw	240
  6171  0A95  1DF6               	btfss	display_date@i+1,3
  6172  0A96  3000               	movlw	0
  6173  0A97  04F6               	iorwf	display_date@i+1,f
  6174  0A98                     l3140:	
  6175                           
  6176                           ;clock_src.c: 89:      write_char(i + '0');
  6177  0A98  0875               	movf	display_date@i,w
  6178  0A99  3E30               	addlw	48
  6179  0A9A  160A  118A  2598  120A  158A  	fcall	_write_char
  6180  0A9F                     l3142:	
  6181                           
  6182                           ;clock_src.c: 91:      i=table1[3]&0x0f;
  6183  0A9F  1283               	bcf	3,5	;RP0=0, select bank0
  6184  0AA0  1303               	bcf	3,6	;RP1=0, select bank0
  6185  0AA1  0823               	movf	_table1+3,w
  6186  0AA2  390F               	andlw	15
  6187  0AA3  00F3               	movwf	??_display_date
  6188  0AA4  01F4               	clrf	??_display_date+1
  6189  0AA5  0873               	movf	??_display_date,w
  6190  0AA6  00F5               	movwf	display_date@i
  6191  0AA7  0874               	movf	??_display_date+1,w
  6192  0AA8  00F6               	movwf	display_date@i+1
  6193  0AA9                     l3144:	
  6194                           
  6195                           ;clock_src.c: 92:      write_char(i + '0');
  6196  0AA9  0875               	movf	display_date@i,w
  6197  0AAA  3E30               	addlw	48
  6198  0AAB  160A  118A  2598  120A  158A  	fcall	_write_char
  6199  0AB0                     l3146:	
  6200                           
  6201                           ;clock_src.c: 93:      write_char('/');
  6202  0AB0  302F               	movlw	47
  6203  0AB1  160A  118A  2598  120A  158A  	fcall	_write_char
  6204  0AB6                     l3148:	
  6205                           
  6206                           ;clock_src.c: 97:      i=table1[4]&0xf0;
  6207  0AB6  1283               	bcf	3,5	;RP0=0, select bank0
  6208  0AB7  1303               	bcf	3,6	;RP1=0, select bank0
  6209  0AB8  0824               	movf	_table1+4,w
  6210  0AB9  39F0               	andlw	240
  6211  0ABA  00F3               	movwf	??_display_date
  6212  0ABB  01F4               	clrf	??_display_date+1
  6213  0ABC  0873               	movf	??_display_date,w
  6214  0ABD  00F5               	movwf	display_date@i
  6215  0ABE  0874               	movf	??_display_date+1,w
  6216  0ABF  00F6               	movwf	display_date@i+1
  6217  0AC0                     l3150:	
  6218                           
  6219                           ;clock_src.c: 98:      i=i>>4;
  6220  0AC0  0E75               	swapf	display_date@i,w
  6221  0AC1  390F               	andlw	15
  6222  0AC2  00F5               	movwf	display_date@i
  6223  0AC3  0E76               	swapf	display_date@i+1,w
  6224  0AC4  39F0               	andlw	240
  6225  0AC5  04F5               	iorwf	display_date@i,f
  6226  0AC6  0E76               	swapf	display_date@i+1,w
  6227  0AC7  390F               	andlw	15
  6228  0AC8  00F6               	movwf	display_date@i+1
  6229  0AC9  30F0               	movlw	240
  6230  0ACA  1DF6               	btfss	display_date@i+1,3
  6231  0ACB  3000               	movlw	0
  6232  0ACC  04F6               	iorwf	display_date@i+1,f
  6233  0ACD                     l3152:	
  6234                           
  6235                           ;clock_src.c: 99:      write_char(i + '0');
  6236  0ACD  0875               	movf	display_date@i,w
  6237  0ACE  3E30               	addlw	48
  6238  0ACF  160A  118A  2598  120A  158A  	fcall	_write_char
  6239  0AD4                     l3154:	
  6240                           
  6241                           ;clock_src.c: 101:      i=table1[4]&0x0f;
  6242  0AD4  1283               	bcf	3,5	;RP0=0, select bank0
  6243  0AD5  1303               	bcf	3,6	;RP1=0, select bank0
  6244  0AD6  0824               	movf	_table1+4,w
  6245  0AD7  390F               	andlw	15
  6246  0AD8  00F3               	movwf	??_display_date
  6247  0AD9  01F4               	clrf	??_display_date+1
  6248  0ADA  0873               	movf	??_display_date,w
  6249  0ADB  00F5               	movwf	display_date@i
  6250  0ADC  0874               	movf	??_display_date+1,w
  6251  0ADD  00F6               	movwf	display_date@i+1
  6252  0ADE                     l3156:	
  6253                           
  6254                           ;clock_src.c: 102:      write_char(i + '0');
  6255  0ADE  0875               	movf	display_date@i,w
  6256  0ADF  3E30               	addlw	48
  6257  0AE0  160A  118A  2598  120A  158A  	fcall	_write_char
  6258  0AE5                     l3158:	
  6259                           
  6260                           ;clock_src.c: 103:      write_char('/');
  6261  0AE5  302F               	movlw	47
  6262  0AE6  160A  118A  2598  120A  158A  	fcall	_write_char
  6263  0AEB                     l3160:	
  6264                           
  6265                           ;clock_src.c: 107:      i=table1[6]&0xf0;
  6266  0AEB  1283               	bcf	3,5	;RP0=0, select bank0
  6267  0AEC  1303               	bcf	3,6	;RP1=0, select bank0
  6268  0AED  0826               	movf	_table1+6,w
  6269  0AEE  39F0               	andlw	240
  6270  0AEF  00F3               	movwf	??_display_date
  6271  0AF0  01F4               	clrf	??_display_date+1
  6272  0AF1  0873               	movf	??_display_date,w
  6273  0AF2  00F5               	movwf	display_date@i
  6274  0AF3  0874               	movf	??_display_date+1,w
  6275  0AF4  00F6               	movwf	display_date@i+1
  6276  0AF5                     l3162:	
  6277                           
  6278                           ;clock_src.c: 108:      i=i>>4;
  6279  0AF5  0E75               	swapf	display_date@i,w
  6280  0AF6  390F               	andlw	15
  6281  0AF7  00F5               	movwf	display_date@i
  6282  0AF8  0E76               	swapf	display_date@i+1,w
  6283  0AF9  39F0               	andlw	240
  6284  0AFA  04F5               	iorwf	display_date@i,f
  6285  0AFB  0E76               	swapf	display_date@i+1,w
  6286  0AFC  390F               	andlw	15
  6287  0AFD  00F6               	movwf	display_date@i+1
  6288  0AFE  30F0               	movlw	240
  6289  0AFF  1DF6               	btfss	display_date@i+1,3
  6290  0B00  3000               	movlw	0
  6291  0B01  04F6               	iorwf	display_date@i+1,f
  6292  0B02                     l3164:	
  6293                           
  6294                           ;clock_src.c: 109:      write_char(i + '0');
  6295  0B02  0875               	movf	display_date@i,w
  6296  0B03  3E30               	addlw	48
  6297  0B04  160A  118A  2598  120A  158A  	fcall	_write_char
  6298  0B09                     l3166:	
  6299                           
  6300                           ;clock_src.c: 111:      i=table1[6]&0x0f;
  6301  0B09  1283               	bcf	3,5	;RP0=0, select bank0
  6302  0B0A  1303               	bcf	3,6	;RP1=0, select bank0
  6303  0B0B  0826               	movf	_table1+6,w
  6304  0B0C  390F               	andlw	15
  6305  0B0D  00F3               	movwf	??_display_date
  6306  0B0E  01F4               	clrf	??_display_date+1
  6307  0B0F  0873               	movf	??_display_date,w
  6308  0B10  00F5               	movwf	display_date@i
  6309  0B11  0874               	movf	??_display_date+1,w
  6310  0B12  00F6               	movwf	display_date@i+1
  6311  0B13                     l3168:	
  6312                           
  6313                           ;clock_src.c: 112:      write_char(i + '0');
  6314  0B13  0875               	movf	display_date@i,w
  6315  0B14  3E30               	addlw	48
  6316  0B15  160A  118A  2598  120A  158A  	fcall	_write_char
  6317  0B1A                     l335:	
  6318  0B1A  0008               	return
  6319  0B1B                     __end_of_display_date:	
  6320                           
  6321                           	psect	text27
  6322  09CF                     __ptext27:	
  6323 ;; *************** function _display_clock *****************
  6324 ;; Defined at:
  6325 ;;		line 37 in file "clock_src.c"
  6326 ;; Parameters:    Size  Location     Type
  6327 ;;		None
  6328 ;; Auto vars:     Size  Location     Type
  6329 ;;  i               2    5[COMMON] int 
  6330 ;; Return value:  Size  Location     Type
  6331 ;;                  1    wreg      void 
  6332 ;; Registers used:
  6333 ;;		wreg, status,2, status,0, btemp+1, pclath, cstack
  6334 ;; Tracked objects:
  6335 ;;		On entry : 0/0
  6336 ;;		On exit  : 0/0
  6337 ;;		Unchanged: 0/0
  6338 ;; Data sizes:     COMMON   BANK0   BANK1   BANK3   BANK2
  6339 ;;      Params:         0       0       0       0       0
  6340 ;;      Locals:         2       0       0       0       0
  6341 ;;      Temps:          2       0       0       0       0
  6342 ;;      Totals:         4       0       0       0       0
  6343 ;;Total ram usage:        4 bytes
  6344 ;; Hardware stack levels used:    1
  6345 ;; Hardware stack levels required when called:    2
  6346 ;; This function calls:
  6347 ;;		_write_char
  6348 ;; This function is called by:
  6349 ;;		_main
  6350 ;; This function uses a non-reentrant model
  6351 ;;
  6352                           
  6353                           
  6354                           ;psect for function _display_clock
  6355  09CF                     _display_clock:	
  6356  09CF                     l3170:	
  6357                           ;incstack = 0
  6358                           ; Regs used in _display_clock: [wreg+status,2+status,0+btemp+1+pclath+cstack]
  6359                           
  6360                           
  6361                           ;clock_src.c: 39:      int i;;clock_src.c: 40:      if(RB1==0)
  6362  09CF  1283               	bcf	3,5	;RP0=0, select bank0
  6363  09D0  1303               	bcf	3,6	;RP1=0, select bank0
  6364  09D1  1886               	btfsc	6,1	;volatile
  6365  09D2  29D4               	goto	u1891
  6366  09D3  29D5               	goto	u1890
  6367  09D4                     u1891:	
  6368  09D4  29DD               	goto	l3174
  6369  09D5                     u1890:	
  6370  09D5                     l3172:	
  6371                           
  6372                           ;clock_src.c: 41:        {;clock_src.c: 42:           table1[0]=table1[3];
  6373  09D5  0823               	movf	_table1+3,w
  6374  09D6  00F3               	movwf	??_display_clock
  6375  09D7  0873               	movf	??_display_clock,w
  6376  09D8  00A0               	movwf	_table1
  6377                           
  6378                           ;clock_src.c: 43:           table1[1]=table1[4];
  6379  09D9  0824               	movf	_table1+4,w
  6380  09DA  00F3               	movwf	??_display_clock
  6381  09DB  0873               	movf	??_display_clock,w
  6382  09DC  00A1               	movwf	_table1+1
  6383  09DD                     l3174:	
  6384                           
  6385                           ;clock_src.c: 46:      i=table1[2]&0xf0;
  6386  09DD  0822               	movf	_table1+2,w
  6387  09DE  39F0               	andlw	240
  6388  09DF  00F3               	movwf	??_display_clock
  6389  09E0  01F4               	clrf	??_display_clock+1
  6390  09E1  0873               	movf	??_display_clock,w
  6391  09E2  00F5               	movwf	display_clock@i
  6392  09E3  0874               	movf	??_display_clock+1,w
  6393  09E4  00F6               	movwf	display_clock@i+1
  6394  09E5                     l3176:	
  6395                           
  6396                           ;clock_src.c: 47:      i=i>>4;
  6397  09E5  0E75               	swapf	display_clock@i,w
  6398  09E6  390F               	andlw	15
  6399  09E7  00F5               	movwf	display_clock@i
  6400  09E8  0E76               	swapf	display_clock@i+1,w
  6401  09E9  39F0               	andlw	240
  6402  09EA  04F5               	iorwf	display_clock@i,f
  6403  09EB  0E76               	swapf	display_clock@i+1,w
  6404  09EC  390F               	andlw	15
  6405  09ED  00F6               	movwf	display_clock@i+1
  6406  09EE  30F0               	movlw	240
  6407  09EF  1DF6               	btfss	display_clock@i+1,3
  6408  09F0  3000               	movlw	0
  6409  09F1  04F6               	iorwf	display_clock@i+1,f
  6410  09F2                     l3178:	
  6411                           
  6412                           ;clock_src.c: 48:      write_char(i + '0');
  6413  09F2  0875               	movf	display_clock@i,w
  6414  09F3  3E30               	addlw	48
  6415  09F4  160A  118A  2598  120A  158A  	fcall	_write_char
  6416  09F9                     l3180:	
  6417                           
  6418                           ;clock_src.c: 52:      i=table1[2]&0x0f;
  6419  09F9  1283               	bcf	3,5	;RP0=0, select bank0
  6420  09FA  1303               	bcf	3,6	;RP1=0, select bank0
  6421  09FB  0822               	movf	_table1+2,w
  6422  09FC  390F               	andlw	15
  6423  09FD  00F3               	movwf	??_display_clock
  6424  09FE  01F4               	clrf	??_display_clock+1
  6425  09FF  0873               	movf	??_display_clock,w
  6426  0A00  00F5               	movwf	display_clock@i
  6427  0A01  0874               	movf	??_display_clock+1,w
  6428  0A02  00F6               	movwf	display_clock@i+1
  6429  0A03                     l3182:	
  6430                           
  6431                           ;clock_src.c: 53:      write_char(i + '0');
  6432  0A03  0875               	movf	display_clock@i,w
  6433  0A04  3E30               	addlw	48
  6434  0A05  160A  118A  2598  120A  158A  	fcall	_write_char
  6435  0A0A                     l3184:	
  6436                           
  6437                           ;clock_src.c: 54:      write_char(':');
  6438  0A0A  303A               	movlw	58
  6439  0A0B  160A  118A  2598  120A  158A  	fcall	_write_char
  6440  0A10                     l3186:	
  6441                           
  6442                           ;clock_src.c: 58:      i=table1[1]&0xf0;
  6443  0A10  1283               	bcf	3,5	;RP0=0, select bank0
  6444  0A11  1303               	bcf	3,6	;RP1=0, select bank0
  6445  0A12  0821               	movf	_table1+1,w
  6446  0A13  39F0               	andlw	240
  6447  0A14  00F3               	movwf	??_display_clock
  6448  0A15  01F4               	clrf	??_display_clock+1
  6449  0A16  0873               	movf	??_display_clock,w
  6450  0A17  00F5               	movwf	display_clock@i
  6451  0A18  0874               	movf	??_display_clock+1,w
  6452  0A19  00F6               	movwf	display_clock@i+1
  6453  0A1A                     l3188:	
  6454                           
  6455                           ;clock_src.c: 59:      i=i>>4;
  6456  0A1A  0E75               	swapf	display_clock@i,w
  6457  0A1B  390F               	andlw	15
  6458  0A1C  00F5               	movwf	display_clock@i
  6459  0A1D  0E76               	swapf	display_clock@i+1,w
  6460  0A1E  39F0               	andlw	240
  6461  0A1F  04F5               	iorwf	display_clock@i,f
  6462  0A20  0E76               	swapf	display_clock@i+1,w
  6463  0A21  390F               	andlw	15
  6464  0A22  00F6               	movwf	display_clock@i+1
  6465  0A23  30F0               	movlw	240
  6466  0A24  1DF6               	btfss	display_clock@i+1,3
  6467  0A25  3000               	movlw	0
  6468  0A26  04F6               	iorwf	display_clock@i+1,f
  6469  0A27                     l3190:	
  6470                           
  6471                           ;clock_src.c: 60:      write_char(i + '0');
  6472  0A27  0875               	movf	display_clock@i,w
  6473  0A28  3E30               	addlw	48
  6474  0A29  160A  118A  2598  120A  158A  	fcall	_write_char
  6475  0A2E                     l3192:	
  6476                           
  6477                           ;clock_src.c: 63:      i=table1[1]&0x0f;
  6478  0A2E  1283               	bcf	3,5	;RP0=0, select bank0
  6479  0A2F  1303               	bcf	3,6	;RP1=0, select bank0
  6480  0A30  0821               	movf	_table1+1,w
  6481  0A31  390F               	andlw	15
  6482  0A32  00F3               	movwf	??_display_clock
  6483  0A33  01F4               	clrf	??_display_clock+1
  6484  0A34  0873               	movf	??_display_clock,w
  6485  0A35  00F5               	movwf	display_clock@i
  6486  0A36  0874               	movf	??_display_clock+1,w
  6487  0A37  00F6               	movwf	display_clock@i+1
  6488  0A38                     l3194:	
  6489                           
  6490                           ;clock_src.c: 64:      write_char(i + '0');
  6491  0A38  0875               	movf	display_clock@i,w
  6492  0A39  3E30               	addlw	48
  6493  0A3A  160A  118A  2598  120A  158A  	fcall	_write_char
  6494  0A3F                     l3196:	
  6495                           
  6496                           ;clock_src.c: 65:      write_char(':');
  6497  0A3F  303A               	movlw	58
  6498  0A40  160A  118A  2598  120A  158A  	fcall	_write_char
  6499  0A45                     l3198:	
  6500                           
  6501                           ;clock_src.c: 68:      i=table1[0]&0xf0;
  6502  0A45  1283               	bcf	3,5	;RP0=0, select bank0
  6503  0A46  1303               	bcf	3,6	;RP1=0, select bank0
  6504  0A47  0820               	movf	_table1,w
  6505  0A48  39F0               	andlw	240
  6506  0A49  00F3               	movwf	??_display_clock
  6507  0A4A  01F4               	clrf	??_display_clock+1
  6508  0A4B  0873               	movf	??_display_clock,w
  6509  0A4C  00F5               	movwf	display_clock@i
  6510  0A4D  0874               	movf	??_display_clock+1,w
  6511  0A4E  00F6               	movwf	display_clock@i+1
  6512  0A4F                     l3200:	
  6513                           
  6514                           ;clock_src.c: 69:      i=i>>4;
  6515  0A4F  0E75               	swapf	display_clock@i,w
  6516  0A50  390F               	andlw	15
  6517  0A51  00F5               	movwf	display_clock@i
  6518  0A52  0E76               	swapf	display_clock@i+1,w
  6519  0A53  39F0               	andlw	240
  6520  0A54  04F5               	iorwf	display_clock@i,f
  6521  0A55  0E76               	swapf	display_clock@i+1,w
  6522  0A56  390F               	andlw	15
  6523  0A57  00F6               	movwf	display_clock@i+1
  6524  0A58  30F0               	movlw	240
  6525  0A59  1DF6               	btfss	display_clock@i+1,3
  6526  0A5A  3000               	movlw	0
  6527  0A5B  04F6               	iorwf	display_clock@i+1,f
  6528  0A5C                     l3202:	
  6529                           
  6530                           ;clock_src.c: 70:      write_char(i + '0');
  6531  0A5C  0875               	movf	display_clock@i,w
  6532  0A5D  3E30               	addlw	48
  6533  0A5E  160A  118A  2598  120A  158A  	fcall	_write_char
  6534  0A63                     l3204:	
  6535                           
  6536                           ;clock_src.c: 73:      i=table1[0]&0x0f;
  6537  0A63  1283               	bcf	3,5	;RP0=0, select bank0
  6538  0A64  1303               	bcf	3,6	;RP1=0, select bank0
  6539  0A65  0820               	movf	_table1,w
  6540  0A66  390F               	andlw	15
  6541  0A67  00F3               	movwf	??_display_clock
  6542  0A68  01F4               	clrf	??_display_clock+1
  6543  0A69  0873               	movf	??_display_clock,w
  6544  0A6A  00F5               	movwf	display_clock@i
  6545  0A6B  0874               	movf	??_display_clock+1,w
  6546  0A6C  00F6               	movwf	display_clock@i+1
  6547  0A6D                     l3206:	
  6548                           
  6549                           ;clock_src.c: 74:      write_char(i + '0');
  6550  0A6D  0875               	movf	display_clock@i,w
  6551  0A6E  3E30               	addlw	48
  6552  0A6F  160A  118A  2598  120A  158A  	fcall	_write_char
  6553  0A74                     l331:	
  6554  0A74  0008               	return
  6555  0A75                     __end_of_display_clock:	
  6556                           
  6557                           	psect	text28
  6558  03C3                     __ptext28:	
  6559 ;; *************** function _date_settings *****************
  6560 ;; Defined at:
  6561 ;;		line 327 in file "Button_src.c"
  6562 ;; Parameters:    Size  Location     Type
  6563 ;;		None
  6564 ;; Auto vars:     Size  Location     Type
  6565 ;;		None
  6566 ;; Return value:  Size  Location     Type
  6567 ;;                  1    wreg      void 
  6568 ;; Registers used:
  6569 ;;		wreg, fsr0l, fsr0h, status,2, status,0, btemp+1, pclath, cstack
  6570 ;; Tracked objects:
  6571 ;;		On entry : 0/0
  6572 ;;		On exit  : 0/0
  6573 ;;		Unchanged: 0/0
  6574 ;; Data sizes:     COMMON   BANK0   BANK1   BANK3   BANK2
  6575 ;;      Params:         0       0       0       0       0
  6576 ;;      Locals:         0       0       0       0       0
  6577 ;;      Temps:          0       3       0       0       0
  6578 ;;      Totals:         0       3       0       0       0
  6579 ;;Total ram usage:        3 bytes
  6580 ;; Hardware stack levels used:    1
  6581 ;; Hardware stack levels required when called:    3
  6582 ;; This function calls:
  6583 ;;		_button_delay
  6584 ;;		_incrementor
  6585 ;;		_modulus_func
  6586 ;;		_set_time
  6587 ;;		_time_date_delimiter
  6588 ;;		_time_date_hex_terminator
  6589 ;;		_write_char
  6590 ;;		_write_cmd
  6591 ;; This function is called by:
  6592 ;;		_main
  6593 ;; This function uses a non-reentrant model
  6594 ;;
  6595                           
  6596                           
  6597                           ;psect for function _date_settings
  6598  03C3                     _date_settings:	
  6599  03C3                     l3344:	
  6600                           ;incstack = 0
  6601                           ; Regs used in _date_settings: [wreg-fsr0h+status,2+status,0+btemp+1+pclath+cstack]
  6602                           
  6603                           
  6604                           ;Button_src.c: 328:  RC0 = 0;
  6605  03C3  1283               	bcf	3,5	;RP0=0, select bank0
  6606  03C4  1303               	bcf	3,6	;RP1=0, select bank0
  6607  03C5  1007               	bcf	7,0	;volatile
  6608                           
  6609                           ;Button_src.c: 329:  RC1 = 1;
  6610  03C6  1487               	bsf	7,1	;volatile
  6611                           
  6612                           ;Button_src.c: 330:  RC2 = 1;
  6613  03C7  1507               	bsf	7,2	;volatile
  6614                           
  6615                           ;Button_src.c: 331:  RC3 = 1;
  6616  03C8  1587               	bsf	7,3	;volatile
  6617                           
  6618                           ;Button_src.c: 332:   if (RC4 == 0){
  6619  03C9  1A07               	btfsc	7,4	;volatile
  6620  03CA  2BCC               	goto	u1981
  6621  03CB  2BCD               	goto	u1980
  6622  03CC                     u1981:	
  6623  03CC  2FE5               	goto	l561
  6624  03CD                     u1980:	
  6625  03CD                     l3346:	
  6626                           
  6627                           ;Button_src.c: 333:       write_cmd(0x1);
  6628  03CD  3001               	movlw	1
  6629  03CE  160A  118A  25B1  120A  118A  	fcall	_write_cmd
  6630  03D3                     l550:	
  6631                           ;Button_src.c: 334:       for(;;){
  6632                           
  6633                           
  6634                           ;Button_src.c: 335:             write_cmd(0x80);
  6635  03D3  3080               	movlw	128
  6636  03D4  160A  118A  25B1  120A  118A  	fcall	_write_cmd
  6637                           
  6638                           ;Button_src.c: 336:             write_char('D');
  6639  03D9  3044               	movlw	68
  6640  03DA  160A  118A  2598  120A  118A  	fcall	_write_char
  6641                           
  6642                           ;Button_src.c: 337:             write_char('a');
  6643  03DF  3061               	movlw	97
  6644  03E0  160A  118A  2598  120A  118A  	fcall	_write_char
  6645                           
  6646                           ;Button_src.c: 338:             write_char('t');
  6647  03E5  3074               	movlw	116
  6648  03E6  160A  118A  2598  120A  118A  	fcall	_write_char
  6649                           
  6650                           ;Button_src.c: 339:             write_char('e');
  6651  03EB  3065               	movlw	101
  6652  03EC  160A  118A  2598  120A  118A  	fcall	_write_char
  6653                           
  6654                           ;Button_src.c: 340:             write_char('_');
  6655  03F1  305F               	movlw	95
  6656  03F2  160A  118A  2598  120A  118A  	fcall	_write_char
  6657                           
  6658                           ;Button_src.c: 341:             write_char('S');
  6659  03F7  3053               	movlw	83
  6660  03F8  160A  118A  2598  120A  118A  	fcall	_write_char
  6661                           
  6662                           ;Button_src.c: 342:             write_char('e');
  6663  03FD  3065               	movlw	101
  6664  03FE  160A  118A  2598  120A  118A  	fcall	_write_char
  6665                           
  6666                           ;Button_src.c: 343:             write_char('t');
  6667  0403  3074               	movlw	116
  6668  0404  160A  118A  2598  120A  118A  	fcall	_write_char
  6669                           
  6670                           ;Button_src.c: 344:             write_char('t');
  6671  0409  3074               	movlw	116
  6672  040A  160A  118A  2598  120A  118A  	fcall	_write_char
  6673                           
  6674                           ;Button_src.c: 345:             write_char('i');
  6675  040F  3069               	movlw	105
  6676  0410  160A  118A  2598  120A  118A  	fcall	_write_char
  6677                           
  6678                           ;Button_src.c: 346:             write_char('n');
  6679  0415  306E               	movlw	110
  6680  0416  160A  118A  2598  120A  118A  	fcall	_write_char
  6681                           
  6682                           ;Button_src.c: 347:             write_char('g');
  6683  041B  3067               	movlw	103
  6684  041C  160A  118A  2598  120A  118A  	fcall	_write_char
  6685                           
  6686                           ;Button_src.c: 348:             write_char('s');
  6687  0421  3073               	movlw	115
  6688  0422  160A  118A  2598  120A  118A  	fcall	_write_char
  6689  0427                     l3348:	
  6690                           
  6691                           ;Button_src.c: 349:             RC0 = 1;
  6692  0427  1283               	bcf	3,5	;RP0=0, select bank0
  6693  0428  1303               	bcf	3,6	;RP1=0, select bank0
  6694  0429  1407               	bsf	7,0	;volatile
  6695  042A                     l3350:	
  6696                           
  6697                           ;Button_src.c: 350:             RC1 = 0;
  6698  042A  1087               	bcf	7,1	;volatile
  6699  042B                     l3352:	
  6700                           
  6701                           ;Button_src.c: 351:             RC2 = 1;
  6702  042B  1507               	bsf	7,2	;volatile
  6703  042C                     l3354:	
  6704                           
  6705                           ;Button_src.c: 352:             RC3 = 1;
  6706  042C  1587               	bsf	7,3	;volatile
  6707  042D                     l3356:	
  6708                           
  6709                           ;Button_src.c: 353:             if(RC7 == 0 && b =='x'){
  6710  042D  1B87               	btfsc	7,7	;volatile
  6711  042E  2C30               	goto	u1991
  6712  042F  2C31               	goto	u1990
  6713  0430                     u1991:	
  6714  0430  2CA2               	goto	l3380
  6715  0431                     u1990:	
  6716  0431                     l3358:	
  6717  0431  3078               	movlw	120
  6718  0432  0649               	xorwf	_b,w
  6719  0433  1D03               	btfss	3,2
  6720  0434  2C36               	goto	u2001
  6721  0435  2C37               	goto	u2000
  6722  0436                     u2001:	
  6723  0436  2CA2               	goto	l3380
  6724  0437                     u2000:	
  6725  0437                     l3360:	
  6726                           
  6727                           ;Button_src.c: 354:                 if(stats == 1)
  6728  0437  032B               	decf	_stats,w
  6729  0438  042C               	iorwf	_stats+1,w
  6730  0439  1D03               	btfss	3,2
  6731  043A  2C3C               	goto	u2011
  6732  043B  2C3D               	goto	u2010
  6733  043C                     u2011:	
  6734  043C  2C41               	goto	l552
  6735  043D                     u2010:	
  6736  043D                     l3362:	
  6737                           
  6738                           ;Button_src.c: 355:                     a++;
  6739  043D  3001               	movlw	1
  6740  043E  00DA               	movwf	??_date_settings
  6741  043F  085A               	movf	??_date_settings,w
  6742  0440  07CA               	addwf	_a,f
  6743  0441                     l552:	
  6744                           
  6745                           ;Button_src.c: 356:                 if(stats == 0)
  6746  0441  082B               	movf	_stats,w
  6747  0442  042C               	iorwf	_stats+1,w
  6748  0443  1D03               	btfss	3,2
  6749  0444  2C46               	goto	u2021
  6750  0445  2C47               	goto	u2020
  6751  0446                     u2021:	
  6752  0446  2C4B               	goto	l553
  6753  0447                     u2020:	
  6754  0447                     l3364:	
  6755                           
  6756                           ;Button_src.c: 357:                     stats = 1;
  6757  0447  3001               	movlw	1
  6758  0448  00AB               	movwf	_stats
  6759  0449  3000               	movlw	0
  6760  044A  00AC               	movwf	_stats+1
  6761  044B                     l553:	
  6762                           
  6763                           ;Button_src.c: 359:                     x++ ;
  6764  044B  3001               	movlw	1
  6765  044C  07B7               	addwf	_x,f
  6766  044D  1803               	skipnc
  6767  044E  0AB8               	incf	_x+1,f
  6768  044F  3000               	movlw	0
  6769  0450  07B8               	addwf	_x+1,f
  6770  0451                     l3366:	
  6771                           
  6772                           ;Button_src.c: 360:                     x = modulus_func(x,10);
  6773  0451  0838               	movf	_x+1,w
  6774  0452  00F8               	movwf	modulus_func@x+1
  6775  0453  0837               	movf	_x,w
  6776  0454  00F7               	movwf	modulus_func@x
  6777  0455  300A               	movlw	10
  6778  0456  00F9               	movwf	modulus_func@y
  6779  0457  3000               	movlw	0
  6780  0458  00FA               	movwf	modulus_func@y+1
  6781  0459  160A  118A  24E2  120A  118A  	fcall	_modulus_func
  6782  045E  0878               	movf	?_modulus_func+1,w
  6783  045F  1283               	bcf	3,5	;RP0=0, select bank0
  6784  0460  1303               	bcf	3,6	;RP1=0, select bank0
  6785  0461  00B8               	movwf	_x+1
  6786  0462  0877               	movf	?_modulus_func,w
  6787  0463  00B7               	movwf	_x
  6788  0464                     l3368:	
  6789                           
  6790                           ;Button_src.c: 361:                     y = incrementor(y,x,'9');
  6791  0464  0836               	movf	_y+1,w
  6792  0465  00D6               	movwf	incrementor@upper_val+1
  6793  0466  0835               	movf	_y,w
  6794  0467  00D5               	movwf	incrementor@upper_val
  6795  0468  0838               	movf	_x+1,w
  6796  0469  00D8               	movwf	incrementor@lower_val+1
  6797  046A  0837               	movf	_x,w
  6798  046B  00D7               	movwf	incrementor@lower_val
  6799  046C  3039               	movlw	57
  6800  046D  00DA               	movwf	??_date_settings
  6801  046E  085A               	movf	??_date_settings,w
  6802  046F  00D9               	movwf	incrementor@z
  6803  0470  160A  118A  266B  120A  118A  	fcall	_incrementor
  6804  0475  1283               	bcf	3,5	;RP0=0, select bank0
  6805  0476  1303               	bcf	3,6	;RP1=0, select bank0
  6806  0477  00DB               	movwf	??_date_settings+1
  6807  0478  01DC               	clrf	??_date_settings+2
  6808  0479  085B               	movf	??_date_settings+1,w
  6809  047A  00B5               	movwf	_y
  6810  047B  085C               	movf	??_date_settings+2,w
  6811  047C  00B6               	movwf	_y+1
  6812  047D                     l3370:	
  6813                           
  6814                           ;Button_src.c: 362:                     a = time_date_hex_terminator(a,'C');
  6815  047D  3043               	movlw	67
  6816  047E  00DA               	movwf	??_date_settings
  6817  047F  085A               	movf	??_date_settings,w
  6818  0480  00F0               	movwf	time_date_hex_terminator@limiter
  6819  0481  084A               	movf	_a,w
  6820  0482  160A  118A  24F4  120A  118A  	fcall	_time_date_hex_terminator
  6821  0487  1283               	bcf	3,5	;RP0=0, select bank0
  6822  0488  1303               	bcf	3,6	;RP1=0, select bank0
  6823  0489  00DB               	movwf	??_date_settings+1
  6824  048A  085B               	movf	??_date_settings+1,w
  6825  048B  00CA               	movwf	_a
  6826  048C                     l3372:	
  6827                           
  6828                           ;Button_src.c: 363:                     if(y == 1 && x == 3){
  6829  048C  0335               	decf	_y,w
  6830  048D  0436               	iorwf	_y+1,w
  6831  048E  1D03               	btfss	3,2
  6832  048F  2C91               	goto	u2031
  6833  0490  2C92               	goto	u2030
  6834  0491                     u2031:	
  6835  0491  2C9D               	goto	l3378
  6836  0492                     u2030:	
  6837  0492                     l3374:	
  6838  0492  3003               	movlw	3
  6839  0493  0637               	xorwf	_x,w
  6840  0494  0438               	iorwf	_x+1,w
  6841  0495  1D03               	btfss	3,2
  6842  0496  2C98               	goto	u2041
  6843  0497  2C99               	goto	u2040
  6844  0498                     u2041:	
  6845  0498  2C9D               	goto	l3378
  6846  0499                     u2040:	
  6847  0499                     l3376:	
  6848                           
  6849                           ;Button_src.c: 364:                         x = 0;
  6850  0499  01B7               	clrf	_x
  6851  049A  01B8               	clrf	_x+1
  6852                           
  6853                           ;Button_src.c: 365:                         y = 0;
  6854  049B  01B5               	clrf	_y
  6855  049C  01B6               	clrf	_y+1
  6856  049D                     l3378:	
  6857                           
  6858                           ;Button_src.c: 367:                     button_delay();
  6859  049D  160A  118A  2540  120A  118A  	fcall	_button_delay
  6860  04A2                     l3380:	
  6861                           
  6862                           ;Button_src.c: 369:             if(RC7==0 && b == 'y'){
  6863  04A2  1283               	bcf	3,5	;RP0=0, select bank0
  6864  04A3  1303               	bcf	3,6	;RP1=0, select bank0
  6865  04A4  1B87               	btfsc	7,7	;volatile
  6866  04A5  2CA7               	goto	u2051
  6867  04A6  2CA8               	goto	u2050
  6868  04A7                     u2051:	
  6869  04A7  2D0A               	goto	l3402
  6870  04A8                     u2050:	
  6871  04A8                     l3382:	
  6872  04A8  3079               	movlw	121
  6873  04A9  0649               	xorwf	_b,w
  6874  04AA  1D03               	btfss	3,2
  6875  04AB  2CAD               	goto	u2061
  6876  04AC  2CAE               	goto	u2060
  6877  04AD                     u2061:	
  6878  04AD  2D0A               	goto	l3402
  6879  04AE                     u2060:	
  6880  04AE                     l3384:	
  6881                           
  6882                           ;Button_src.c: 370:                     day_hex++;
  6883  04AE  3001               	movlw	1
  6884  04AF  00DA               	movwf	??_date_settings
  6885  04B0  085A               	movf	??_date_settings,w
  6886  04B1  07C7               	addwf	_day_hex,f
  6887  04B2                     l3386:	
  6888                           
  6889                           ;Button_src.c: 371:                     day_low++;
  6890  04B2  3001               	movlw	1
  6891  04B3  07B1               	addwf	_day_low,f
  6892  04B4  1803               	skipnc
  6893  04B5  0AB2               	incf	_day_low+1,f
  6894  04B6  3000               	movlw	0
  6895  04B7  07B2               	addwf	_day_low+1,f
  6896  04B8                     l3388:	
  6897                           
  6898                           ;Button_src.c: 372:                     day_low = modulus_func(day_low,10);
  6899  04B8  0832               	movf	_day_low+1,w
  6900  04B9  00F8               	movwf	modulus_func@x+1
  6901  04BA  0831               	movf	_day_low,w
  6902  04BB  00F7               	movwf	modulus_func@x
  6903  04BC  300A               	movlw	10
  6904  04BD  00F9               	movwf	modulus_func@y
  6905  04BE  3000               	movlw	0
  6906  04BF  00FA               	movwf	modulus_func@y+1
  6907  04C0  160A  118A  24E2  120A  118A  	fcall	_modulus_func
  6908  04C5  0878               	movf	?_modulus_func+1,w
  6909  04C6  1283               	bcf	3,5	;RP0=0, select bank0
  6910  04C7  1303               	bcf	3,6	;RP1=0, select bank0
  6911  04C8  00B2               	movwf	_day_low+1
  6912  04C9  0877               	movf	?_modulus_func,w
  6913  04CA  00B1               	movwf	_day_low
  6914  04CB                     l3390:	
  6915                           
  6916                           ;Button_src.c: 374:                     day_high = incrementor(day_high,day_low,'9');
  6917  04CB  0830               	movf	_day_high+1,w
  6918  04CC  00D6               	movwf	incrementor@upper_val+1
  6919  04CD  082F               	movf	_day_high,w
  6920  04CE  00D5               	movwf	incrementor@upper_val
  6921  04CF  0832               	movf	_day_low+1,w
  6922  04D0  00D8               	movwf	incrementor@lower_val+1
  6923  04D1  0831               	movf	_day_low,w
  6924  04D2  00D7               	movwf	incrementor@lower_val
  6925  04D3  3039               	movlw	57
  6926  04D4  00DA               	movwf	??_date_settings
  6927  04D5  085A               	movf	??_date_settings,w
  6928  04D6  00D9               	movwf	incrementor@z
  6929  04D7  160A  118A  266B  120A  118A  	fcall	_incrementor
  6930  04DC  1283               	bcf	3,5	;RP0=0, select bank0
  6931  04DD  1303               	bcf	3,6	;RP1=0, select bank0
  6932  04DE  00DB               	movwf	??_date_settings+1
  6933  04DF  01DC               	clrf	??_date_settings+2
  6934  04E0  085B               	movf	??_date_settings+1,w
  6935  04E1  00AF               	movwf	_day_high
  6936  04E2  085C               	movf	??_date_settings+2,w
  6937  04E3  00B0               	movwf	_day_high+1
  6938  04E4                     l3392:	
  6939                           
  6940                           ;Button_src.c: 375:                     day_hex = time_date_hex_terminator(day_hex,'c');
  6941  04E4  3063               	movlw	99
  6942  04E5  00DA               	movwf	??_date_settings
  6943  04E6  085A               	movf	??_date_settings,w
  6944  04E7  00F0               	movwf	time_date_hex_terminator@limiter
  6945  04E8  0847               	movf	_day_hex,w
  6946  04E9  160A  118A  24F4  120A  118A  	fcall	_time_date_hex_terminator
  6947  04EE  1283               	bcf	3,5	;RP0=0, select bank0
  6948  04EF  1303               	bcf	3,6	;RP1=0, select bank0
  6949  04F0  00DB               	movwf	??_date_settings+1
  6950  04F1  085B               	movf	??_date_settings+1,w
  6951  04F2  00C7               	movwf	_day_hex
  6952  04F3                     l3394:	
  6953                           
  6954                           ;Button_src.c: 376:                     if(day_high == 3 && day_low==2 ){
  6955  04F3  3003               	movlw	3
  6956  04F4  062F               	xorwf	_day_high,w
  6957  04F5  0430               	iorwf	_day_high+1,w
  6958  04F6  1D03               	btfss	3,2
  6959  04F7  2CF9               	goto	u2071
  6960  04F8  2CFA               	goto	u2070
  6961  04F9                     u2071:	
  6962  04F9  2D05               	goto	l3400
  6963  04FA                     u2070:	
  6964  04FA                     l3396:	
  6965  04FA  3002               	movlw	2
  6966  04FB  0631               	xorwf	_day_low,w
  6967  04FC  0432               	iorwf	_day_low+1,w
  6968  04FD  1D03               	btfss	3,2
  6969  04FE  2D00               	goto	u2081
  6970  04FF  2D01               	goto	u2080
  6971  0500                     u2081:	
  6972  0500  2D05               	goto	l3400
  6973  0501                     u2080:	
  6974  0501                     l3398:	
  6975                           
  6976                           ;Button_src.c: 377:                         day_high = 0;
  6977  0501  01AF               	clrf	_day_high
  6978  0502  01B0               	clrf	_day_high+1
  6979                           
  6980                           ;Button_src.c: 378:                         day_low = 0;
  6981  0503  01B1               	clrf	_day_low
  6982  0504  01B2               	clrf	_day_low+1
  6983  0505                     l3400:	
  6984                           
  6985                           ;Button_src.c: 380:                     button_delay();
  6986  0505  160A  118A  2540  120A  118A  	fcall	_button_delay
  6987  050A                     l3402:	
  6988                           
  6989                           ;Button_src.c: 382:             if(RC7==0 && b == 'z'){
  6990  050A  1283               	bcf	3,5	;RP0=0, select bank0
  6991  050B  1303               	bcf	3,6	;RP1=0, select bank0
  6992  050C  1B87               	btfsc	7,7	;volatile
  6993  050D  2D0F               	goto	u2091
  6994  050E  2D10               	goto	u2090
  6995  050F                     u2091:	
  6996  050F  2D63               	goto	l3424
  6997  0510                     u2090:	
  6998  0510                     l3404:	
  6999  0510  307A               	movlw	122
  7000  0511  0649               	xorwf	_b,w
  7001  0512  1D03               	btfss	3,2
  7002  0513  2D15               	goto	u2101
  7003  0514  2D16               	goto	u2100
  7004  0515                     u2101:	
  7005  0515  2D63               	goto	l3424
  7006  0516                     u2100:	
  7007  0516                     l3406:	
  7008                           
  7009                           ;Button_src.c: 383:                     c++;
  7010  0516  3001               	movlw	1
  7011  0517  00DA               	movwf	??_date_settings
  7012  0518  085A               	movf	??_date_settings,w
  7013  0519  07C8               	addwf	_c,f
  7014  051A                     l3408:	
  7015                           
  7016                           ;Button_src.c: 384:                     t++;
  7017  051A  3001               	movlw	1
  7018  051B  07BB               	addwf	_t,f
  7019  051C  1803               	skipnc
  7020  051D  0ABC               	incf	_t+1,f
  7021  051E  3000               	movlw	0
  7022  051F  07BC               	addwf	_t+1,f
  7023  0520                     l3410:	
  7024                           
  7025                           ;Button_src.c: 385:                     t = modulus_func(t,10);
  7026  0520  083C               	movf	_t+1,w
  7027  0521  00F8               	movwf	modulus_func@x+1
  7028  0522  083B               	movf	_t,w
  7029  0523  00F7               	movwf	modulus_func@x
  7030  0524  300A               	movlw	10
  7031  0525  00F9               	movwf	modulus_func@y
  7032  0526  3000               	movlw	0
  7033  0527  00FA               	movwf	modulus_func@y+1
  7034  0528  160A  118A  24E2  120A  118A  	fcall	_modulus_func
  7035  052D  0878               	movf	?_modulus_func+1,w
  7036  052E  1283               	bcf	3,5	;RP0=0, select bank0
  7037  052F  1303               	bcf	3,6	;RP1=0, select bank0
  7038  0530  00BC               	movwf	_t+1
  7039  0531  0877               	movf	?_modulus_func,w
  7040  0532  00BB               	movwf	_t
  7041  0533                     l3412:	
  7042                           
  7043                           ;Button_src.c: 386:                     w = incrementor(w,t,'9');
  7044  0533  083A               	movf	_w+1,w
  7045  0534  00D6               	movwf	incrementor@upper_val+1
  7046  0535  0839               	movf	_w,w
  7047  0536  00D5               	movwf	incrementor@upper_val
  7048  0537  083C               	movf	_t+1,w
  7049  0538  00D8               	movwf	incrementor@lower_val+1
  7050  0539  083B               	movf	_t,w
  7051  053A  00D7               	movwf	incrementor@lower_val
  7052  053B  3039               	movlw	57
  7053  053C  00DA               	movwf	??_date_settings
  7054  053D  085A               	movf	??_date_settings,w
  7055  053E  00D9               	movwf	incrementor@z
  7056  053F  160A  118A  266B  120A  118A  	fcall	_incrementor
  7057  0544  1283               	bcf	3,5	;RP0=0, select bank0
  7058  0545  1303               	bcf	3,6	;RP1=0, select bank0
  7059  0546  00DB               	movwf	??_date_settings+1
  7060  0547  01DC               	clrf	??_date_settings+2
  7061  0548  085B               	movf	??_date_settings+1,w
  7062  0549  00B9               	movwf	_w
  7063  054A  085C               	movf	??_date_settings+2,w
  7064  054B  00BA               	movwf	_w+1
  7065  054C                     l3414:	
  7066                           
  7067                           ;Button_src.c: 387:                      if(c == (0x59 + 1)){
  7068  054C  305A               	movlw	90
  7069  054D  0648               	xorwf	_c,w
  7070  054E  1D03               	btfss	3,2
  7071  054F  2D51               	goto	u2111
  7072  0550  2D52               	goto	u2110
  7073  0551                     u2111:	
  7074  0551  2D53               	goto	l3418
  7075  0552                     u2110:	
  7076  0552                     l3416:	
  7077                           
  7078                           ;Button_src.c: 388:                         c = 0x00;
  7079  0552  01C8               	clrf	_c
  7080  0553                     l3418:	
  7081                           
  7082                           ;Button_src.c: 390:                     if(w == 6){
  7083  0553  3006               	movlw	6
  7084  0554  0639               	xorwf	_w,w
  7085  0555  043A               	iorwf	_w+1,w
  7086  0556  1D03               	btfss	3,2
  7087  0557  2D59               	goto	u2121
  7088  0558  2D5A               	goto	u2120
  7089  0559                     u2121:	
  7090  0559  2D5E               	goto	l3422
  7091  055A                     u2120:	
  7092  055A                     l3420:	
  7093                           
  7094                           ;Button_src.c: 391:                         w = 0;
  7095  055A  01B9               	clrf	_w
  7096  055B  01BA               	clrf	_w+1
  7097                           
  7098                           ;Button_src.c: 392:                         t = 0;
  7099  055C  01BB               	clrf	_t
  7100  055D  01BC               	clrf	_t+1
  7101  055E                     l3422:	
  7102                           
  7103                           ;Button_src.c: 394:                     button_delay();
  7104  055E  160A  118A  2540  120A  118A  	fcall	_button_delay
  7105  0563                     l3424:	
  7106                           
  7107                           ;Button_src.c: 398:              table[4] = a;
  7108  0563  1283               	bcf	3,5	;RP0=0, select bank0
  7109  0564  1303               	bcf	3,6	;RP1=0, select bank0
  7110  0565  084A               	movf	_a,w
  7111  0566  00DA               	movwf	??_date_settings
  7112  0567  085A               	movf	??_date_settings,w
  7113  0568  00E5               	movwf	_table+4
  7114  0569                     l3426:	
  7115                           
  7116                           ;Button_src.c: 399:              table[6] = c;
  7117  0569  0848               	movf	_c,w
  7118  056A  00DA               	movwf	??_date_settings
  7119  056B  085A               	movf	??_date_settings,w
  7120  056C  00E7               	movwf	_table+6
  7121  056D                     l3428:	
  7122                           
  7123                           ;Button_src.c: 400:              table[3] = day_hex;
  7124  056D  0847               	movf	_day_hex,w
  7125  056E  00DA               	movwf	??_date_settings
  7126  056F  085A               	movf	??_date_settings,w
  7127  0570  00E4               	movwf	_table+3
  7128  0571                     l3430:	
  7129                           
  7130                           ;Button_src.c: 402:                     a = time_date_delimiter(a,0x11,'9');
  7131  0571  3011               	movlw	17
  7132  0572  00DA               	movwf	??_date_settings
  7133  0573  085A               	movf	??_date_settings,w
  7134  0574  00F0               	movwf	time_date_delimiter@hex
  7135  0575  3039               	movlw	57
  7136  0576  00DB               	movwf	??_date_settings+1
  7137  0577  085B               	movf	??_date_settings+1,w
  7138  0578  00F1               	movwf	time_date_delimiter@limiter
  7139  0579  084A               	movf	_a,w
  7140  057A  120A  118A  2005  120A  118A  	fcall	_time_date_delimiter
  7141  057F  1283               	bcf	3,5	;RP0=0, select bank0
  7142  0580  1303               	bcf	3,6	;RP1=0, select bank0
  7143  0581  00DC               	movwf	??_date_settings+2
  7144  0582  085C               	movf	??_date_settings+2,w
  7145  0583  00CA               	movwf	_a
  7146  0584                     l3432:	
  7147                           
  7148                           ;Button_src.c: 404:                     day_hex = time_date_delimiter(day_hex,0x11,'9');
  7149  0584  3011               	movlw	17
  7150  0585  00DA               	movwf	??_date_settings
  7151  0586  085A               	movf	??_date_settings,w
  7152  0587  00F0               	movwf	time_date_delimiter@hex
  7153  0588  3039               	movlw	57
  7154  0589  00DB               	movwf	??_date_settings+1
  7155  058A  085B               	movf	??_date_settings+1,w
  7156  058B  00F1               	movwf	time_date_delimiter@limiter
  7157  058C  0847               	movf	_day_hex,w
  7158  058D  120A  118A  2005  120A  118A  	fcall	_time_date_delimiter
  7159  0592  1283               	bcf	3,5	;RP0=0, select bank0
  7160  0593  1303               	bcf	3,6	;RP1=0, select bank0
  7161  0594  00DC               	movwf	??_date_settings+2
  7162  0595  085C               	movf	??_date_settings+2,w
  7163  0596  00C7               	movwf	_day_hex
  7164  0597                     l3434:	
  7165                           
  7166                           ;Button_src.c: 405:                     day_hex = time_date_delimiter(day_hex,0x21,'J');
  7167  0597  3021               	movlw	33
  7168  0598  00DA               	movwf	??_date_settings
  7169  0599  085A               	movf	??_date_settings,w
  7170  059A  00F0               	movwf	time_date_delimiter@hex
  7171  059B  304A               	movlw	74
  7172  059C  00DB               	movwf	??_date_settings+1
  7173  059D  085B               	movf	??_date_settings+1,w
  7174  059E  00F1               	movwf	time_date_delimiter@limiter
  7175  059F  0847               	movf	_day_hex,w
  7176  05A0  120A  118A  2005  120A  118A  	fcall	_time_date_delimiter
  7177  05A5  1283               	bcf	3,5	;RP0=0, select bank0
  7178  05A6  1303               	bcf	3,6	;RP1=0, select bank0
  7179  05A7  00DC               	movwf	??_date_settings+2
  7180  05A8  085C               	movf	??_date_settings+2,w
  7181  05A9  00C7               	movwf	_day_hex
  7182  05AA                     l3436:	
  7183                           
  7184                           ;Button_src.c: 406:                     day_hex = time_date_delimiter(day_hex,0x11,'9');
  7185  05AA  3011               	movlw	17
  7186  05AB  00DA               	movwf	??_date_settings
  7187  05AC  085A               	movf	??_date_settings,w
  7188  05AD  00F0               	movwf	time_date_delimiter@hex
  7189  05AE  3039               	movlw	57
  7190  05AF  00DB               	movwf	??_date_settings+1
  7191  05B0  085B               	movf	??_date_settings+1,w
  7192  05B1  00F1               	movwf	time_date_delimiter@limiter
  7193  05B2  0847               	movf	_day_hex,w
  7194  05B3  120A  118A  2005  120A  118A  	fcall	_time_date_delimiter
  7195  05B8  1283               	bcf	3,5	;RP0=0, select bank0
  7196  05B9  1303               	bcf	3,6	;RP1=0, select bank0
  7197  05BA  00DC               	movwf	??_date_settings+2
  7198  05BB  085C               	movf	??_date_settings+2,w
  7199  05BC  00C7               	movwf	_day_hex
  7200  05BD                     l3438:	
  7201                           
  7202                           ;Button_src.c: 407:                     day_hex = time_date_delimiter(day_hex,0x21,'J');
  7203  05BD  3021               	movlw	33
  7204  05BE  00DA               	movwf	??_date_settings
  7205  05BF  085A               	movf	??_date_settings,w
  7206  05C0  00F0               	movwf	time_date_delimiter@hex
  7207  05C1  304A               	movlw	74
  7208  05C2  00DB               	movwf	??_date_settings+1
  7209  05C3  085B               	movf	??_date_settings+1,w
  7210  05C4  00F1               	movwf	time_date_delimiter@limiter
  7211  05C5  0847               	movf	_day_hex,w
  7212  05C6  120A  118A  2005  120A  118A  	fcall	_time_date_delimiter
  7213  05CB  1283               	bcf	3,5	;RP0=0, select bank0
  7214  05CC  1303               	bcf	3,6	;RP1=0, select bank0
  7215  05CD  00DC               	movwf	??_date_settings+2
  7216  05CE  085C               	movf	??_date_settings+2,w
  7217  05CF  00C7               	movwf	_day_hex
  7218  05D0                     l3440:	
  7219                           
  7220                           ;Button_src.c: 408:                     day_hex = time_date_delimiter(day_hex,0x31,'Y');
  7221  05D0  3031               	movlw	49
  7222  05D1  00DA               	movwf	??_date_settings
  7223  05D2  085A               	movf	??_date_settings,w
  7224  05D3  00F0               	movwf	time_date_delimiter@hex
  7225  05D4  3059               	movlw	89
  7226  05D5  00DB               	movwf	??_date_settings+1
  7227  05D6  085B               	movf	??_date_settings+1,w
  7228  05D7  00F1               	movwf	time_date_delimiter@limiter
  7229  05D8  0847               	movf	_day_hex,w
  7230  05D9  120A  118A  2005  120A  118A  	fcall	_time_date_delimiter
  7231  05DE  1283               	bcf	3,5	;RP0=0, select bank0
  7232  05DF  1303               	bcf	3,6	;RP1=0, select bank0
  7233  05E0  00DC               	movwf	??_date_settings+2
  7234  05E1  085C               	movf	??_date_settings+2,w
  7235  05E2  00C7               	movwf	_day_hex
  7236  05E3                     l3442:	
  7237                           
  7238                           ;Button_src.c: 410:                     c = time_date_delimiter(c,0x11,'9');
  7239  05E3  3011               	movlw	17
  7240  05E4  00DA               	movwf	??_date_settings
  7241  05E5  085A               	movf	??_date_settings,w
  7242  05E6  00F0               	movwf	time_date_delimiter@hex
  7243  05E7  3039               	movlw	57
  7244  05E8  00DB               	movwf	??_date_settings+1
  7245  05E9  085B               	movf	??_date_settings+1,w
  7246  05EA  00F1               	movwf	time_date_delimiter@limiter
  7247  05EB  0848               	movf	_c,w
  7248  05EC  120A  118A  2005  120A  118A  	fcall	_time_date_delimiter
  7249  05F1  1283               	bcf	3,5	;RP0=0, select bank0
  7250  05F2  1303               	bcf	3,6	;RP1=0, select bank0
  7251  05F3  00DC               	movwf	??_date_settings+2
  7252  05F4  085C               	movf	??_date_settings+2,w
  7253  05F5  00C8               	movwf	_c
  7254  05F6                     l3444:	
  7255                           
  7256                           ;Button_src.c: 411:                     c = time_date_delimiter(c,0x21,'J');
  7257  05F6  3021               	movlw	33
  7258  05F7  00DA               	movwf	??_date_settings
  7259  05F8  085A               	movf	??_date_settings,w
  7260  05F9  00F0               	movwf	time_date_delimiter@hex
  7261  05FA  304A               	movlw	74
  7262  05FB  00DB               	movwf	??_date_settings+1
  7263  05FC  085B               	movf	??_date_settings+1,w
  7264  05FD  00F1               	movwf	time_date_delimiter@limiter
  7265  05FE  0848               	movf	_c,w
  7266  05FF  120A  118A  2005  120A  118A  	fcall	_time_date_delimiter
  7267  0604  1283               	bcf	3,5	;RP0=0, select bank0
  7268  0605  1303               	bcf	3,6	;RP1=0, select bank0
  7269  0606  00DC               	movwf	??_date_settings+2
  7270  0607  085C               	movf	??_date_settings+2,w
  7271  0608  00C8               	movwf	_c
  7272  0609                     l3446:	
  7273                           
  7274                           ;Button_src.c: 412:                     c = time_date_delimiter(c,0x11,'9');
  7275  0609  3011               	movlw	17
  7276  060A  00DA               	movwf	??_date_settings
  7277  060B  085A               	movf	??_date_settings,w
  7278  060C  00F0               	movwf	time_date_delimiter@hex
  7279  060D  3039               	movlw	57
  7280  060E  00DB               	movwf	??_date_settings+1
  7281  060F  085B               	movf	??_date_settings+1,w
  7282  0610  00F1               	movwf	time_date_delimiter@limiter
  7283  0611  0848               	movf	_c,w
  7284  0612  120A  118A  2005  120A  118A  	fcall	_time_date_delimiter
  7285  0617  1283               	bcf	3,5	;RP0=0, select bank0
  7286  0618  1303               	bcf	3,6	;RP1=0, select bank0
  7287  0619  00DC               	movwf	??_date_settings+2
  7288  061A  085C               	movf	??_date_settings+2,w
  7289  061B  00C8               	movwf	_c
  7290  061C                     l3448:	
  7291                           
  7292                           ;Button_src.c: 413:                     c = time_date_delimiter(c,0x21,'J');
  7293  061C  3021               	movlw	33
  7294  061D  00DA               	movwf	??_date_settings
  7295  061E  085A               	movf	??_date_settings,w
  7296  061F  00F0               	movwf	time_date_delimiter@hex
  7297  0620  304A               	movlw	74
  7298  0621  00DB               	movwf	??_date_settings+1
  7299  0622  085B               	movf	??_date_settings+1,w
  7300  0623  00F1               	movwf	time_date_delimiter@limiter
  7301  0624  0848               	movf	_c,w
  7302  0625  120A  118A  2005  120A  118A  	fcall	_time_date_delimiter
  7303  062A  1283               	bcf	3,5	;RP0=0, select bank0
  7304  062B  1303               	bcf	3,6	;RP1=0, select bank0
  7305  062C  00DC               	movwf	??_date_settings+2
  7306  062D  085C               	movf	??_date_settings+2,w
  7307  062E  00C8               	movwf	_c
  7308  062F                     l3450:	
  7309                           
  7310                           ;Button_src.c: 414:                     c = time_date_delimiter(c,0x31,'Y');
  7311  062F  3031               	movlw	49
  7312  0630  00DA               	movwf	??_date_settings
  7313  0631  085A               	movf	??_date_settings,w
  7314  0632  00F0               	movwf	time_date_delimiter@hex
  7315  0633  3059               	movlw	89
  7316  0634  00DB               	movwf	??_date_settings+1
  7317  0635  085B               	movf	??_date_settings+1,w
  7318  0636  00F1               	movwf	time_date_delimiter@limiter
  7319  0637  0848               	movf	_c,w
  7320  0638  120A  118A  2005  120A  118A  	fcall	_time_date_delimiter
  7321  063D  1283               	bcf	3,5	;RP0=0, select bank0
  7322  063E  1303               	bcf	3,6	;RP1=0, select bank0
  7323  063F  00DC               	movwf	??_date_settings+2
  7324  0640  085C               	movf	??_date_settings+2,w
  7325  0641  00C8               	movwf	_c
  7326  0642                     l3452:	
  7327                           
  7328                           ;Button_src.c: 415:                     c = time_date_delimiter(c,0x41,'j');
  7329  0642  3041               	movlw	65
  7330  0643  00DA               	movwf	??_date_settings
  7331  0644  085A               	movf	??_date_settings,w
  7332  0645  00F0               	movwf	time_date_delimiter@hex
  7333  0646  306A               	movlw	106
  7334  0647  00DB               	movwf	??_date_settings+1
  7335  0648  085B               	movf	??_date_settings+1,w
  7336  0649  00F1               	movwf	time_date_delimiter@limiter
  7337  064A  0848               	movf	_c,w
  7338  064B  120A  118A  2005  120A  118A  	fcall	_time_date_delimiter
  7339  0650  1283               	bcf	3,5	;RP0=0, select bank0
  7340  0651  1303               	bcf	3,6	;RP1=0, select bank0
  7341  0652  00DC               	movwf	??_date_settings+2
  7342  0653  085C               	movf	??_date_settings+2,w
  7343  0654  00C8               	movwf	_c
  7344  0655                     l3454:	
  7345                           
  7346                           ;Button_src.c: 416:                     c = time_date_delimiter(c,0x51,'z');
  7347  0655  3051               	movlw	81
  7348  0656  00DA               	movwf	??_date_settings
  7349  0657  085A               	movf	??_date_settings,w
  7350  0658  00F0               	movwf	time_date_delimiter@hex
  7351  0659  307A               	movlw	122
  7352  065A  00DB               	movwf	??_date_settings+1
  7353  065B  085B               	movf	??_date_settings+1,w
  7354  065C  00F1               	movwf	time_date_delimiter@limiter
  7355  065D  0848               	movf	_c,w
  7356  065E  120A  118A  2005  120A  118A  	fcall	_time_date_delimiter
  7357  0663  1283               	bcf	3,5	;RP0=0, select bank0
  7358  0664  1303               	bcf	3,6	;RP1=0, select bank0
  7359  0665  00DC               	movwf	??_date_settings+2
  7360  0666  085C               	movf	??_date_settings+2,w
  7361  0667  00C8               	movwf	_c
  7362  0668                     l3456:	
  7363                           
  7364                           ;Button_src.c: 418:              write_cmd(0x88);
  7365  0668  3088               	movlw	136
  7366  0669  160A  118A  25B1  120A  118A  	fcall	_write_cmd
  7367  066E                     l3458:	
  7368                           
  7369                           ;Button_src.c: 420:                   RC0 = 0;
  7370  066E  1283               	bcf	3,5	;RP0=0, select bank0
  7371  066F  1303               	bcf	3,6	;RP1=0, select bank0
  7372  0670  1007               	bcf	7,0	;volatile
  7373  0671                     l3460:	
  7374                           
  7375                           ;Button_src.c: 421:                   RC1 = 1;
  7376  0671  1487               	bsf	7,1	;volatile
  7377  0672                     l3462:	
  7378                           
  7379                           ;Button_src.c: 422:                   RC2 = 1;
  7380  0672  1507               	bsf	7,2	;volatile
  7381  0673                     l3464:	
  7382                           
  7383                           ;Button_src.c: 423:                   RC3 = 1;
  7384  0673  1587               	bsf	7,3	;volatile
  7385  0674                     l3466:	
  7386                           
  7387                           ;Button_src.c: 425:                     if (RC6 == 0 ){
  7388  0674  1B07               	btfsc	7,6	;volatile
  7389  0675  2E77               	goto	u2131
  7390  0676  2E78               	goto	u2130
  7391  0677                     u2131:	
  7392  0677  2E8F               	goto	l560
  7393  0678                     u2130:	
  7394  0678                     l3468:	
  7395                           
  7396                           ;Button_src.c: 426:                           a = 0x00;
  7397  0678  01CA               	clrf	_a
  7398                           
  7399                           ;Button_src.c: 427:                           c = 0x00;
  7400  0679  01C8               	clrf	_c
  7401                           
  7402                           ;Button_src.c: 428:                           day_hex = 0x00;
  7403  067A  01C7               	clrf	_day_hex
  7404                           
  7405                           ;Button_src.c: 429:                           x = 0;
  7406  067B  01B7               	clrf	_x
  7407  067C  01B8               	clrf	_x+1
  7408                           
  7409                           ;Button_src.c: 430:                           y = 0;
  7410  067D  01B5               	clrf	_y
  7411  067E  01B6               	clrf	_y+1
  7412                           
  7413                           ;Button_src.c: 431:                           w = 0;
  7414  067F  01B9               	clrf	_w
  7415  0680  01BA               	clrf	_w+1
  7416                           
  7417                           ;Button_src.c: 432:                           t = 0;
  7418  0681  01BB               	clrf	_t
  7419  0682  01BC               	clrf	_t+1
  7420  0683                     l3470:	
  7421                           
  7422                           ;Button_src.c: 433:                           write_cmd(0x1);
  7423  0683  3001               	movlw	1
  7424  0684  160A  118A  25B1  120A  118A  	fcall	_write_cmd
  7425  0689                     l3472:	
  7426                           
  7427                           ;Button_src.c: 434:                           set_time();
  7428  0689  160A  118A  2697  120A  118A  	fcall	_set_time
  7429  068E  2FE5               	goto	l561
  7430  068F                     l560:	
  7431                           ;Button_src.c: 436:                             }
  7432                           
  7433                           
  7434                           ;Button_src.c: 437:                   RC0 = 0;
  7435  068F  1007               	bcf	7,0	;volatile
  7436                           
  7437                           ;Button_src.c: 438:                   RC1 = 1;
  7438  0690  1487               	bsf	7,1	;volatile
  7439                           
  7440                           ;Button_src.c: 439:                   RC2 = 1;
  7441  0691  1507               	bsf	7,2	;volatile
  7442                           
  7443                           ;Button_src.c: 440:                   RC3 = 1;
  7444  0692  1587               	bsf	7,3	;volatile
  7445  0693                     l3476:	
  7446                           
  7447                           ;Button_src.c: 441:                   z = modulus_func(z,3);
  7448  0693  0834               	movf	_z+1,w
  7449  0694  00F8               	movwf	modulus_func@x+1
  7450  0695  0833               	movf	_z,w
  7451  0696  00F7               	movwf	modulus_func@x
  7452  0697  3003               	movlw	3
  7453  0698  00F9               	movwf	modulus_func@y
  7454  0699  3000               	movlw	0
  7455  069A  00FA               	movwf	modulus_func@y+1
  7456  069B  160A  118A  24E2  120A  118A  	fcall	_modulus_func
  7457  06A0  0878               	movf	?_modulus_func+1,w
  7458  06A1  1283               	bcf	3,5	;RP0=0, select bank0
  7459  06A2  1303               	bcf	3,6	;RP1=0, select bank0
  7460  06A3  00B4               	movwf	_z+1
  7461  06A4  0877               	movf	?_modulus_func,w
  7462  06A5  00B3               	movwf	_z
  7463  06A6                     l3478:	
  7464                           
  7465                           ;Button_src.c: 442:                   if(RC4 == 0 && z ==0){
  7466  06A6  1A07               	btfsc	7,4	;volatile
  7467  06A7  2EA9               	goto	u2141
  7468  06A8  2EAA               	goto	u2140
  7469  06A9                     u2141:	
  7470  06A9  2EED               	goto	l3488
  7471  06AA                     u2140:	
  7472  06AA                     l3480:	
  7473  06AA  0833               	movf	_z,w
  7474  06AB  0434               	iorwf	_z+1,w
  7475  06AC  1D03               	btfss	3,2
  7476  06AD  2EAF               	goto	u2151
  7477  06AE  2EB0               	goto	u2150
  7478  06AF                     u2151:	
  7479  06AF  2EED               	goto	l3488
  7480  06B0                     u2150:	
  7481  06B0                     l3482:	
  7482                           
  7483                           ;Button_src.c: 443:                       write_cmd(0x90);
  7484  06B0  3090               	movlw	144
  7485  06B1  160A  118A  25B1  120A  118A  	fcall	_write_cmd
  7486                           
  7487                           ;Button_src.c: 444:                       write_char('D');
  7488  06B6  3044               	movlw	68
  7489  06B7  160A  118A  2598  120A  118A  	fcall	_write_char
  7490                           
  7491                           ;Button_src.c: 445:                       write_char('a');
  7492  06BC  3061               	movlw	97
  7493  06BD  160A  118A  2598  120A  118A  	fcall	_write_char
  7494                           
  7495                           ;Button_src.c: 446:                       write_char('y');
  7496  06C2  3079               	movlw	121
  7497  06C3  160A  118A  2598  120A  118A  	fcall	_write_char
  7498                           
  7499                           ;Button_src.c: 447:                       write_char(':');
  7500  06C8  303A               	movlw	58
  7501  06C9  160A  118A  2598  120A  118A  	fcall	_write_char
  7502                           
  7503                           ;Button_src.c: 448:                       write_char(' ');
  7504  06CE  3020               	movlw	32
  7505  06CF  160A  118A  2598  120A  118A  	fcall	_write_char
  7506                           
  7507                           ;Button_src.c: 449:                       write_char(' ');
  7508  06D4  3020               	movlw	32
  7509  06D5  160A  118A  2598  120A  118A  	fcall	_write_char
  7510  06DA                     l3484:	
  7511                           
  7512                           ;Button_src.c: 450:                       b = 'y';
  7513  06DA  3079               	movlw	121
  7514  06DB  1283               	bcf	3,5	;RP0=0, select bank0
  7515  06DC  1303               	bcf	3,6	;RP1=0, select bank0
  7516  06DD  00DA               	movwf	??_date_settings
  7517  06DE  085A               	movf	??_date_settings,w
  7518  06DF  00C9               	movwf	_b
  7519  06E0                     l3486:	
  7520                           
  7521                           ;Button_src.c: 452:                       button_delay();
  7522  06E0  160A  118A  2540  120A  118A  	fcall	_button_delay
  7523                           
  7524                           ;Button_src.c: 453:                       z++;
  7525  06E5  3001               	movlw	1
  7526  06E6  1283               	bcf	3,5	;RP0=0, select bank0
  7527  06E7  1303               	bcf	3,6	;RP1=0, select bank0
  7528  06E8  07B3               	addwf	_z,f
  7529  06E9  1803               	skipnc
  7530  06EA  0AB4               	incf	_z+1,f
  7531  06EB  3000               	movlw	0
  7532  06EC  07B4               	addwf	_z+1,f
  7533  06ED                     l3488:	
  7534                           
  7535                           ;Button_src.c: 455:                   RC0 = 0;
  7536  06ED  1007               	bcf	7,0	;volatile
  7537  06EE                     l3490:	
  7538                           
  7539                           ;Button_src.c: 456:                   RC1 = 1;
  7540  06EE  1487               	bsf	7,1	;volatile
  7541  06EF                     l3492:	
  7542                           
  7543                           ;Button_src.c: 457:                   RC2 = 1;
  7544  06EF  1507               	bsf	7,2	;volatile
  7545  06F0                     l3494:	
  7546                           
  7547                           ;Button_src.c: 458:                   RC3 = 1;
  7548  06F0  1587               	bsf	7,3	;volatile
  7549  06F1                     l3496:	
  7550                           
  7551                           ;Button_src.c: 459:                   if(RC4 == 0&& z ==1){
  7552  06F1  1A07               	btfsc	7,4	;volatile
  7553  06F2  2EF4               	goto	u2161
  7554  06F3  2EF5               	goto	u2160
  7555  06F4                     u2161:	
  7556  06F4  2F36               	goto	l3518
  7557  06F5                     u2160:	
  7558  06F5                     l3498:	
  7559  06F5  0333               	decf	_z,w
  7560  06F6  0434               	iorwf	_z+1,w
  7561  06F7  1D03               	btfss	3,2
  7562  06F8  2EFA               	goto	u2171
  7563  06F9  2EFB               	goto	u2170
  7564  06FA                     u2171:	
  7565  06FA  2F36               	goto	l3518
  7566  06FB                     u2170:	
  7567  06FB                     l3500:	
  7568                           
  7569                           ;Button_src.c: 460:                       z++;
  7570  06FB  3001               	movlw	1
  7571  06FC  07B3               	addwf	_z,f
  7572  06FD  1803               	skipnc
  7573  06FE  0AB4               	incf	_z+1,f
  7574  06FF  3000               	movlw	0
  7575  0700  07B4               	addwf	_z+1,f
  7576  0701                     l3502:	
  7577                           
  7578                           ;Button_src.c: 461:                       button_delay();
  7579  0701  160A  118A  2540  120A  118A  	fcall	_button_delay
  7580  0706                     l3504:	
  7581                           
  7582                           ;Button_src.c: 463:                       write_cmd(0x90);
  7583  0706  3090               	movlw	144
  7584  0707  160A  118A  25B1  120A  118A  	fcall	_write_cmd
  7585  070C                     l3506:	
  7586                           
  7587                           ;Button_src.c: 464:                       write_char('M');
  7588  070C  304D               	movlw	77
  7589  070D  160A  118A  2598  120A  118A  	fcall	_write_char
  7590  0712                     l3508:	
  7591                           
  7592                           ;Button_src.c: 465:                       write_char('o');
  7593  0712  306F               	movlw	111
  7594  0713  160A  118A  2598  120A  118A  	fcall	_write_char
  7595  0718                     l3510:	
  7596                           
  7597                           ;Button_src.c: 466:                       write_char('n');
  7598  0718  306E               	movlw	110
  7599  0719  160A  118A  2598  120A  118A  	fcall	_write_char
  7600  071E                     l3512:	
  7601                           
  7602                           ;Button_src.c: 467:                       write_char('t');
  7603  071E  3074               	movlw	116
  7604  071F  160A  118A  2598  120A  118A  	fcall	_write_char
  7605  0724                     l3514:	
  7606                           
  7607                           ;Button_src.c: 468:                       write_char('h');
  7608  0724  3068               	movlw	104
  7609  0725  160A  118A  2598  120A  118A  	fcall	_write_char
  7610  072A                     l3516:	
  7611                           
  7612                           ;Button_src.c: 469:                       write_char(':');
  7613  072A  303A               	movlw	58
  7614  072B  160A  118A  2598  120A  118A  	fcall	_write_char
  7615                           
  7616                           ;Button_src.c: 470:                       b = 'x';
  7617  0730  3078               	movlw	120
  7618  0731  1283               	bcf	3,5	;RP0=0, select bank0
  7619  0732  1303               	bcf	3,6	;RP1=0, select bank0
  7620  0733  00DA               	movwf	??_date_settings
  7621  0734  085A               	movf	??_date_settings,w
  7622  0735  00C9               	movwf	_b
  7623  0736                     l3518:	
  7624                           
  7625                           ;Button_src.c: 473:                   RC0 = 0;
  7626  0736  1007               	bcf	7,0	;volatile
  7627  0737                     l3520:	
  7628                           
  7629                           ;Button_src.c: 474:                   RC1 = 1;
  7630  0737  1487               	bsf	7,1	;volatile
  7631  0738                     l3522:	
  7632                           
  7633                           ;Button_src.c: 475:                   RC2 = 1;
  7634  0738  1507               	bsf	7,2	;volatile
  7635  0739                     l3524:	
  7636                           
  7637                           ;Button_src.c: 476:                   RC3 = 1;
  7638  0739  1587               	bsf	7,3	;volatile
  7639  073A                     l3526:	
  7640                           
  7641                           ;Button_src.c: 477:                   if(RC4 == 0&& z ==2){
  7642  073A  1A07               	btfsc	7,4	;volatile
  7643  073B  2F3D               	goto	u2181
  7644  073C  2F3E               	goto	u2180
  7645  073D                     u2181:	
  7646  073D  2F82               	goto	l3548
  7647  073E                     u2180:	
  7648  073E                     l3528:	
  7649  073E  3002               	movlw	2
  7650  073F  0633               	xorwf	_z,w
  7651  0740  0434               	iorwf	_z+1,w
  7652  0741  1D03               	btfss	3,2
  7653  0742  2F44               	goto	u2191
  7654  0743  2F45               	goto	u2190
  7655  0744                     u2191:	
  7656  0744  2F82               	goto	l3548
  7657  0745                     u2190:	
  7658  0745                     l3530:	
  7659                           
  7660                           ;Button_src.c: 478:                       button_delay();
  7661  0745  160A  118A  2540  120A  118A  	fcall	_button_delay
  7662  074A                     l3532:	
  7663                           
  7664                           ;Button_src.c: 479:                       z++;
  7665  074A  3001               	movlw	1
  7666  074B  1283               	bcf	3,5	;RP0=0, select bank0
  7667  074C  1303               	bcf	3,6	;RP1=0, select bank0
  7668  074D  07B3               	addwf	_z,f
  7669  074E  1803               	skipnc
  7670  074F  0AB4               	incf	_z+1,f
  7671  0750  3000               	movlw	0
  7672  0751  07B4               	addwf	_z+1,f
  7673  0752                     l3534:	
  7674                           
  7675                           ;Button_src.c: 481:                       write_cmd(0x90);
  7676  0752  3090               	movlw	144
  7677  0753  160A  118A  25B1  120A  118A  	fcall	_write_cmd
  7678  0758                     l3536:	
  7679                           
  7680                           ;Button_src.c: 482:                       write_char('Y');
  7681  0758  3059               	movlw	89
  7682  0759  160A  118A  2598  120A  118A  	fcall	_write_char
  7683  075E                     l3538:	
  7684                           
  7685                           ;Button_src.c: 483:                       write_char('e');
  7686  075E  3065               	movlw	101
  7687  075F  160A  118A  2598  120A  118A  	fcall	_write_char
  7688  0764                     l3540:	
  7689                           
  7690                           ;Button_src.c: 484:                       write_char('a');
  7691  0764  3061               	movlw	97
  7692  0765  160A  118A  2598  120A  118A  	fcall	_write_char
  7693  076A                     l3542:	
  7694                           
  7695                           ;Button_src.c: 485:                       write_char('r');
  7696  076A  3072               	movlw	114
  7697  076B  160A  118A  2598  120A  118A  	fcall	_write_char
  7698  0770                     l3544:	
  7699                           
  7700                           ;Button_src.c: 486:                       write_char(':');
  7701  0770  303A               	movlw	58
  7702  0771  160A  118A  2598  120A  118A  	fcall	_write_char
  7703  0776                     l3546:	
  7704                           
  7705                           ;Button_src.c: 487:                       write_char(' ');
  7706  0776  3020               	movlw	32
  7707  0777  160A  118A  2598  120A  118A  	fcall	_write_char
  7708                           
  7709                           ;Button_src.c: 488:                       b = 'z';
  7710  077C  307A               	movlw	122
  7711  077D  1283               	bcf	3,5	;RP0=0, select bank0
  7712  077E  1303               	bcf	3,6	;RP1=0, select bank0
  7713  077F  00DA               	movwf	??_date_settings
  7714  0780  085A               	movf	??_date_settings,w
  7715  0781  00C9               	movwf	_b
  7716  0782                     l3548:	
  7717                           
  7718                           ;Button_src.c: 491:               write_cmd(0x88);
  7719  0782  3088               	movlw	136
  7720  0783  160A  118A  25B1  120A  118A  	fcall	_write_cmd
  7721  0788                     l3550:	
  7722                           
  7723                           ;Button_src.c: 492:               write_char(day_high + '0');
  7724  0788  1283               	bcf	3,5	;RP0=0, select bank0
  7725  0789  1303               	bcf	3,6	;RP1=0, select bank0
  7726  078A  082F               	movf	_day_high,w
  7727  078B  3E30               	addlw	48
  7728  078C  160A  118A  2598  120A  118A  	fcall	_write_char
  7729  0791                     l3552:	
  7730                           
  7731                           ;Button_src.c: 493:               write_char(day_low + '0');
  7732  0791  1283               	bcf	3,5	;RP0=0, select bank0
  7733  0792  1303               	bcf	3,6	;RP1=0, select bank0
  7734  0793  0831               	movf	_day_low,w
  7735  0794  3E30               	addlw	48
  7736  0795  160A  118A  2598  120A  118A  	fcall	_write_char
  7737  079A                     l3554:	
  7738                           
  7739                           ;Button_src.c: 494:               write_char('/');
  7740  079A  302F               	movlw	47
  7741  079B  160A  118A  2598  120A  118A  	fcall	_write_char
  7742  07A0                     l3556:	
  7743                           
  7744                           ;Button_src.c: 495:               write_char(y + '0');
  7745  07A0  1283               	bcf	3,5	;RP0=0, select bank0
  7746  07A1  1303               	bcf	3,6	;RP1=0, select bank0
  7747  07A2  0835               	movf	_y,w
  7748  07A3  3E30               	addlw	48
  7749  07A4  160A  118A  2598  120A  118A  	fcall	_write_char
  7750  07A9                     l3558:	
  7751                           
  7752                           ;Button_src.c: 496:               write_char(x + '0');
  7753  07A9  1283               	bcf	3,5	;RP0=0, select bank0
  7754  07AA  1303               	bcf	3,6	;RP1=0, select bank0
  7755  07AB  0837               	movf	_x,w
  7756  07AC  3E30               	addlw	48
  7757  07AD  160A  118A  2598  120A  118A  	fcall	_write_char
  7758  07B2                     l3560:	
  7759                           
  7760                           ;Button_src.c: 497:               write_char('/');
  7761  07B2  302F               	movlw	47
  7762  07B3  160A  118A  2598  120A  118A  	fcall	_write_char
  7763  07B8                     l3562:	
  7764                           
  7765                           ;Button_src.c: 498:               write_char(w+ '0');
  7766  07B8  1283               	bcf	3,5	;RP0=0, select bank0
  7767  07B9  1303               	bcf	3,6	;RP1=0, select bank0
  7768  07BA  0839               	movf	_w,w
  7769  07BB  3E30               	addlw	48
  7770  07BC  160A  118A  2598  120A  118A  	fcall	_write_char
  7771  07C1                     l3564:	
  7772                           
  7773                           ;Button_src.c: 499:               write_char(t+ '0');
  7774  07C1  1283               	bcf	3,5	;RP0=0, select bank0
  7775  07C2  1303               	bcf	3,6	;RP1=0, select bank0
  7776  07C3  083B               	movf	_t,w
  7777  07C4  3E30               	addlw	48
  7778  07C5  160A  118A  2598  120A  118A  	fcall	_write_char
  7779  07CA                     l3566:	
  7780                           
  7781                           ;Button_src.c: 502:             RC0 = 0;
  7782  07CA  1283               	bcf	3,5	;RP0=0, select bank0
  7783  07CB  1303               	bcf	3,6	;RP1=0, select bank0
  7784  07CC  1007               	bcf	7,0	;volatile
  7785  07CD                     l3568:	
  7786                           
  7787                           ;Button_src.c: 503:             RC1 = 1;
  7788  07CD  1487               	bsf	7,1	;volatile
  7789  07CE                     l3570:	
  7790                           
  7791                           ;Button_src.c: 504:             RC2 = 1;
  7792  07CE  1507               	bsf	7,2	;volatile
  7793  07CF                     l3572:	
  7794                           
  7795                           ;Button_src.c: 505:             RC3 = 1;
  7796  07CF  1587               	bsf	7,3	;volatile
  7797  07D0                     l3574:	
  7798                           
  7799                           ;Button_src.c: 506:             if (RC7 == 0 ){
  7800  07D0  1B87               	btfsc	7,7	;volatile
  7801  07D1  2FD3               	goto	u2201
  7802  07D2  2FD4               	goto	u2200
  7803  07D3                     u2201:	
  7804  07D3  2BD3               	goto	l550
  7805  07D4                     u2200:	
  7806  07D4                     l3576:	
  7807                           
  7808                           ;Button_src.c: 507:             a = 0x00;
  7809  07D4  01CA               	clrf	_a
  7810                           
  7811                           ;Button_src.c: 508:             c = 0x00;
  7812  07D5  01C8               	clrf	_c
  7813                           
  7814                           ;Button_src.c: 509:             day_hex = 0x00;
  7815  07D6  01C7               	clrf	_day_hex
  7816                           
  7817                           ;Button_src.c: 510:             x = 0;
  7818  07D7  01B7               	clrf	_x
  7819  07D8  01B8               	clrf	_x+1
  7820                           
  7821                           ;Button_src.c: 511:             y = 0;
  7822  07D9  01B5               	clrf	_y
  7823  07DA  01B6               	clrf	_y+1
  7824                           
  7825                           ;Button_src.c: 512:             w = 0;
  7826  07DB  01B9               	clrf	_w
  7827  07DC  01BA               	clrf	_w+1
  7828                           
  7829                           ;Button_src.c: 513:             t = 0;
  7830  07DD  01BB               	clrf	_t
  7831  07DE  01BC               	clrf	_t+1
  7832  07DF                     l3578:	
  7833                           
  7834                           ;Button_src.c: 514:             write_cmd(0x1);
  7835  07DF  3001               	movlw	1
  7836  07E0  160A  118A  25B1  120A  118A  	fcall	_write_cmd
  7837  07E5                     l561:	
  7838                           ;Button_src.c: 515:             break;
  7839                           
  7840  07E5  0008               	return
  7841  07E6                     __end_of_date_settings:	
  7842                           
  7843                           	psect	text29
  7844  15B1                     __ptext29:	
  7845 ;; *************** function _write_cmd *****************
  7846 ;; Defined at:
  7847 ;;		line 41 in file "LCD_src.c"
  7848 ;; Parameters:    Size  Location     Type
  7849 ;;  x               1    wreg     unsigned char 
  7850 ;; Auto vars:     Size  Location     Type
  7851 ;;  x               1    2[COMMON] unsigned char 
  7852 ;;  i               2    0        int 
  7853 ;; Return value:  Size  Location     Type
  7854 ;;                  1    wreg      void 
  7855 ;; Registers used:
  7856 ;;		wreg, status,2, status,0, btemp+1, pclath, cstack
  7857 ;; Tracked objects:
  7858 ;;		On entry : 0/0
  7859 ;;		On exit  : 0/0
  7860 ;;		Unchanged: 0/0
  7861 ;; Data sizes:     COMMON   BANK0   BANK1   BANK3   BANK2
  7862 ;;      Params:         0       0       0       0       0
  7863 ;;      Locals:         1       0       0       0       0
  7864 ;;      Temps:          0       0       0       0       0
  7865 ;;      Totals:         1       0       0       0       0
  7866 ;;Total ram usage:        1 bytes
  7867 ;; Hardware stack levels used:    1
  7868 ;; Hardware stack levels required when called:    1
  7869 ;; This function calls:
  7870 ;;		_delay_screen
  7871 ;; This function is called by:
  7872 ;;		_main
  7873 ;;		_lcd_init
  7874 ;;		_thermometer_threshhold_settings
  7875 ;;		_time_settings
  7876 ;;		_date_settings
  7877 ;; This function uses a non-reentrant model
  7878 ;;
  7879                           
  7880                           
  7881                           ;psect for function _write_cmd
  7882  15B1                     _write_cmd:	
  7883                           
  7884                           ;incstack = 0
  7885                           ; Regs used in _write_cmd: [wreg+status,2+status,0+btemp+1+pclath+cstack]
  7886                           ;write_cmd@x stored from wreg
  7887  15B1  00F2               	movwf	write_cmd@x
  7888  15B2                     l2702:	
  7889                           
  7890                           ;LCD_src.c: 41: void write_cmd(char x);LCD_src.c: 42: {;LCD_src.c: 43:  int i;;LCD_src.c
      +                          : 44:  RA5=0;
  7891  15B2  1283               	bcf	3,5	;RP0=0, select bank0
  7892  15B3  1303               	bcf	3,6	;RP1=0, select bank0
  7893  15B4  1285               	bcf	5,5	;volatile
  7894                           
  7895                           ;LCD_src.c: 45:  RA4=0;
  7896  15B5  1205               	bcf	5,4	;volatile
  7897                           
  7898                           ;LCD_src.c: 46:  RA3=0;
  7899  15B6  1185               	bcf	5,3	;volatile
  7900  15B7                     l2704:	
  7901                           
  7902                           ;LCD_src.c: 47:  delay_screen();
  7903  15B7  160A  118A  2556  160A  118A  	fcall	_delay_screen
  7904  15BC                     l2706:	
  7905                           
  7906                           ;LCD_src.c: 48:  RA3=1;
  7907  15BC  1283               	bcf	3,5	;RP0=0, select bank0
  7908  15BD  1303               	bcf	3,6	;RP1=0, select bank0
  7909  15BE  1585               	bsf	5,3	;volatile
  7910  15BF                     l2708:	
  7911                           
  7912                           ;LCD_src.c: 49:  PORTD=x;
  7913  15BF  0872               	movf	write_cmd@x,w
  7914  15C0  0088               	movwf	8	;volatile
  7915  15C1                     l2710:	
  7916                           
  7917                           ;LCD_src.c: 50:  delay_screen();
  7918  15C1  160A  118A  2556  160A  118A  	fcall	_delay_screen
  7919  15C6                     l2712:	
  7920                           
  7921                           ;LCD_src.c: 51:  RA3=0;
  7922  15C6  1283               	bcf	3,5	;RP0=0, select bank0
  7923  15C7  1303               	bcf	3,6	;RP1=0, select bank0
  7924  15C8  1185               	bcf	5,3	;volatile
  7925  15C9                     l166:	
  7926  15C9  0008               	return
  7927  15CA                     __end_of_write_cmd:	
  7928                           
  7929                           	psect	text30
  7930  1598                     __ptext30:	
  7931 ;; *************** function _write_char *****************
  7932 ;; Defined at:
  7933 ;;		line 28 in file "LCD_src.c"
  7934 ;; Parameters:    Size  Location     Type
  7935 ;;  x               1    wreg     unsigned char 
  7936 ;; Auto vars:     Size  Location     Type
  7937 ;;  x               1    2[COMMON] unsigned char 
  7938 ;;  i               2    0        int 
  7939 ;; Return value:  Size  Location     Type
  7940 ;;                  1    wreg      void 
  7941 ;; Registers used:
  7942 ;;		wreg, status,2, status,0, btemp+1, pclath, cstack
  7943 ;; Tracked objects:
  7944 ;;		On entry : 0/0
  7945 ;;		On exit  : 0/0
  7946 ;;		Unchanged: 0/0
  7947 ;; Data sizes:     COMMON   BANK0   BANK1   BANK3   BANK2
  7948 ;;      Params:         0       0       0       0       0
  7949 ;;      Locals:         1       0       0       0       0
  7950 ;;      Temps:          0       0       0       0       0
  7951 ;;      Totals:         1       0       0       0       0
  7952 ;;Total ram usage:        1 bytes
  7953 ;; Hardware stack levels used:    1
  7954 ;; Hardware stack levels required when called:    1
  7955 ;; This function calls:
  7956 ;;		_delay_screen
  7957 ;; This function is called by:
  7958 ;;		_main
  7959 ;;		_display_temp
  7960 ;;		_display_clock
  7961 ;;		_display_date
  7962 ;;		_thermometer_threshhold_settings
  7963 ;;		_time_settings
  7964 ;;		_date_settings
  7965 ;;		_set_upper_threshold
  7966 ;;		_set_lower_threshold
  7967 ;;		_display_day
  7968 ;; This function uses a non-reentrant model
  7969 ;;
  7970                           
  7971                           
  7972                           ;psect for function _write_char
  7973  1598                     _write_char:	
  7974                           
  7975                           ;incstack = 0
  7976                           ; Regs used in _write_char: [wreg+status,2+status,0+btemp+1+pclath+cstack]
  7977                           ;write_char@x stored from wreg
  7978  1598  00F2               	movwf	write_char@x
  7979  1599                     l2714:	
  7980                           
  7981                           ;LCD_src.c: 28: void write_char(char x);LCD_src.c: 29: {;LCD_src.c: 30:  int i;;LCD_src.
      +                          c: 31:  RA5=1;
  7982  1599  1283               	bcf	3,5	;RP0=0, select bank0
  7983  159A  1303               	bcf	3,6	;RP1=0, select bank0
  7984  159B  1685               	bsf	5,5	;volatile
  7985                           
  7986                           ;LCD_src.c: 32:  RA4=0;
  7987  159C  1205               	bcf	5,4	;volatile
  7988                           
  7989                           ;LCD_src.c: 33:  RA3=0;
  7990  159D  1185               	bcf	5,3	;volatile
  7991  159E                     l2716:	
  7992                           
  7993                           ;LCD_src.c: 34:  delay_screen();
  7994  159E  160A  118A  2556  160A  118A  	fcall	_delay_screen
  7995  15A3                     l2718:	
  7996                           
  7997                           ;LCD_src.c: 35:  RA3=1;
  7998  15A3  1283               	bcf	3,5	;RP0=0, select bank0
  7999  15A4  1303               	bcf	3,6	;RP1=0, select bank0
  8000  15A5  1585               	bsf	5,3	;volatile
  8001  15A6                     l2720:	
  8002                           
  8003                           ;LCD_src.c: 36:  PORTD= x;
  8004  15A6  0872               	movf	write_char@x,w
  8005  15A7  0088               	movwf	8	;volatile
  8006  15A8                     l2722:	
  8007                           
  8008                           ;LCD_src.c: 37:  delay_screen();
  8009  15A8  160A  118A  2556  160A  118A  	fcall	_delay_screen
  8010  15AD                     l2724:	
  8011                           
  8012                           ;LCD_src.c: 38:  RA3=0;
  8013  15AD  1283               	bcf	3,5	;RP0=0, select bank0
  8014  15AE  1303               	bcf	3,6	;RP1=0, select bank0
  8015  15AF  1185               	bcf	5,3	;volatile
  8016  15B0                     l163:	
  8017  15B0  0008               	return
  8018  15B1                     __end_of_write_char:	
  8019                           
  8020                           	psect	text31
  8021  1556                     __ptext31:	
  8022 ;; *************** function _delay_screen *****************
  8023 ;; Defined at:
  8024 ;;		line 70 in file "LCD_src.c"
  8025 ;; Parameters:    Size  Location     Type
  8026 ;;		None
  8027 ;; Auto vars:     Size  Location     Type
  8028 ;;  i               2    0[COMMON] int 
  8029 ;; Return value:  Size  Location     Type
  8030 ;;                  1    wreg      void 
  8031 ;; Registers used:
  8032 ;;		wreg, status,2, btemp+1
  8033 ;; Tracked objects:
  8034 ;;		On entry : 0/0
  8035 ;;		On exit  : 0/0
  8036 ;;		Unchanged: 0/0
  8037 ;; Data sizes:     COMMON   BANK0   BANK1   BANK3   BANK2
  8038 ;;      Params:         0       0       0       0       0
  8039 ;;      Locals:         2       0       0       0       0
  8040 ;;      Temps:          0       0       0       0       0
  8041 ;;      Totals:         2       0       0       0       0
  8042 ;;Total ram usage:        2 bytes
  8043 ;; Hardware stack levels used:    1
  8044 ;; This function calls:
  8045 ;;		Nothing
  8046 ;; This function is called by:
  8047 ;;		_lcd_init
  8048 ;;		_write_char
  8049 ;;		_write_cmd
  8050 ;; This function uses a non-reentrant model
  8051 ;;
  8052                           
  8053                           
  8054                           ;psect for function _delay_screen
  8055  1556                     _delay_screen:	
  8056  1556                     l2654:	
  8057                           ;incstack = 0
  8058                           ; Regs used in _delay_screen: [wreg+status,2+btemp+1]
  8059                           
  8060                           
  8061                           ;LCD_src.c: 71:     int i;;LCD_src.c: 72:  for(i=0;i<5;i++);
  8062  1556  01F0               	clrf	delay_screen@i
  8063  1557  01F1               	clrf	delay_screen@i+1
  8064  1558                     l2660:	
  8065  1558  3001               	movlw	1
  8066  1559  07F0               	addwf	delay_screen@i,f
  8067  155A  1803               	skipnc
  8068  155B  0AF1               	incf	delay_screen@i+1,f
  8069  155C  3000               	movlw	0
  8070  155D  07F1               	addwf	delay_screen@i+1,f
  8071  155E                     l2662:	
  8072  155E  0871               	movf	delay_screen@i+1,w
  8073  155F  3A80               	xorlw	128
  8074  1560  00FF               	movwf	btemp+1
  8075  1561  3080               	movlw	128
  8076  1562  027F               	subwf	btemp+1,w
  8077  1563  1D03               	skipz
  8078  1564  2D67               	goto	u1375
  8079  1565  3005               	movlw	5
  8080  1566  0270               	subwf	delay_screen@i,w
  8081  1567                     u1375:	
  8082  1567  1C03               	skipc
  8083  1568  2D6A               	goto	u1371
  8084  1569  2D6B               	goto	u1370
  8085  156A                     u1371:	
  8086  156A  2D58               	goto	l2660
  8087  156B                     u1370:	
  8088  156B                     l176:	
  8089  156B  0008               	return
  8090  156C                     __end_of_delay_screen:	
  8091                           
  8092                           	psect	text32
  8093  14F4                     __ptext32:	
  8094 ;; *************** function _time_date_hex_terminator *****************
  8095 ;; Defined at:
  8096 ;;		line 36 in file "math_src.c"
  8097 ;; Parameters:    Size  Location     Type
  8098 ;;  val             1    wreg     unsigned char 
  8099 ;;  limiter         1    0[COMMON] unsigned char 
  8100 ;; Auto vars:     Size  Location     Type
  8101 ;;  val             1    3[COMMON] unsigned char 
  8102 ;; Return value:  Size  Location     Type
  8103 ;;                  1    wreg      unsigned char 
  8104 ;; Registers used:
  8105 ;;		wreg, status,2
  8106 ;; Tracked objects:
  8107 ;;		On entry : 0/0
  8108 ;;		On exit  : 0/0
  8109 ;;		Unchanged: 0/0
  8110 ;; Data sizes:     COMMON   BANK0   BANK1   BANK3   BANK2
  8111 ;;      Params:         1       0       0       0       0
  8112 ;;      Locals:         1       0       0       0       0
  8113 ;;      Temps:          2       0       0       0       0
  8114 ;;      Totals:         4       0       0       0       0
  8115 ;;Total ram usage:        4 bytes
  8116 ;; Hardware stack levels used:    1
  8117 ;; This function calls:
  8118 ;;		Nothing
  8119 ;; This function is called by:
  8120 ;;		_time_settings
  8121 ;;		_date_settings
  8122 ;; This function uses a non-reentrant model
  8123 ;;
  8124                           
  8125                           
  8126                           ;psect for function _time_date_hex_terminator
  8127  14F4                     _time_date_hex_terminator:	
  8128                           
  8129                           ;incstack = 0
  8130                           ; Regs used in _time_date_hex_terminator: [wreg+status,2]
  8131                           ;time_date_hex_terminator@val stored from wreg
  8132  14F4  00F3               	movwf	time_date_hex_terminator@val
  8133  14F5                     l2900:	
  8134                           
  8135                           ;math_src.c: 37:     if((val + '0') == limiter){
  8136  14F5  0873               	movf	time_date_hex_terminator@val,w
  8137  14F6  3E30               	addlw	48
  8138  14F7  00F1               	movwf	??_time_date_hex_terminator
  8139  14F8  3000               	movlw	0
  8140  14F9  1803               	skipnc
  8141  14FA  3001               	movlw	1
  8142  14FB  00F2               	movwf	??_time_date_hex_terminator+1
  8143  14FC  0870               	movf	time_date_hex_terminator@limiter,w
  8144  14FD  0671               	xorwf	??_time_date_hex_terminator,w
  8145  14FE  0472               	iorwf	??_time_date_hex_terminator+1,w
  8146  14FF  1D03               	skipz
  8147  1500  2D02               	goto	u1551
  8148  1501  2D03               	goto	u1550
  8149  1502                     u1551:	
  8150  1502  2D04               	goto	l2904
  8151  1503                     u1550:	
  8152  1503                     l2902:	
  8153                           
  8154                           ;math_src.c: 38:     val = 0x00;
  8155  1503  01F3               	clrf	time_date_hex_terminator@val
  8156  1504                     l2904:	
  8157                           
  8158                           ;math_src.c: 40:     return val;
  8159  1504  0873               	movf	time_date_hex_terminator@val,w
  8160  1505                     l618:	
  8161  1505  0008               	return
  8162  1506                     __end_of_time_date_hex_terminator:	
  8163                           
  8164                           	psect	text33
  8165  0005                     __ptext33:	
  8166 ;; *************** function _time_date_delimiter *****************
  8167 ;; Defined at:
  8168 ;;		line 27 in file "math_src.c"
  8169 ;; Parameters:    Size  Location     Type
  8170 ;;  val             1    wreg     unsigned char 
  8171 ;;  hex             1    0[COMMON] unsigned char 
  8172 ;;  limiter         1    1[COMMON] unsigned char 
  8173 ;; Auto vars:     Size  Location     Type
  8174 ;;  val             1    4[COMMON] unsigned char 
  8175 ;; Return value:  Size  Location     Type
  8176 ;;                  1    wreg      unsigned char 
  8177 ;; Registers used:
  8178 ;;		wreg, status,2, status,0
  8179 ;; Tracked objects:
  8180 ;;		On entry : 0/0
  8181 ;;		On exit  : 0/0
  8182 ;;		Unchanged: 0/0
  8183 ;; Data sizes:     COMMON   BANK0   BANK1   BANK3   BANK2
  8184 ;;      Params:         2       0       0       0       0
  8185 ;;      Locals:         1       0       0       0       0
  8186 ;;      Temps:          2       0       0       0       0
  8187 ;;      Totals:         5       0       0       0       0
  8188 ;;Total ram usage:        5 bytes
  8189 ;; Hardware stack levels used:    1
  8190 ;; This function calls:
  8191 ;;		Nothing
  8192 ;; This function is called by:
  8193 ;;		_time_settings
  8194 ;;		_date_settings
  8195 ;; This function uses a non-reentrant model
  8196 ;;
  8197                           
  8198                           
  8199                           ;psect for function _time_date_delimiter
  8200  0005                     _time_date_delimiter:	
  8201                           
  8202                           ;incstack = 0
  8203                           ; Regs used in _time_date_delimiter: [wreg+status,2+status,0]
  8204                           ;time_date_delimiter@val stored from wreg
  8205  0005  00F4               	movwf	time_date_delimiter@val
  8206  0006                     l2908:	
  8207                           
  8208                           ;math_src.c: 28:     if((val + '0') == limiter){
  8209  0006  0874               	movf	time_date_delimiter@val,w
  8210  0007  3E30               	addlw	48
  8211  0008  00F2               	movwf	??_time_date_delimiter
  8212  0009  3000               	movlw	0
  8213  000A  1803               	skipnc
  8214  000B  3001               	movlw	1
  8215  000C  00F3               	movwf	??_time_date_delimiter+1
  8216  000D  0871               	movf	time_date_delimiter@limiter,w
  8217  000E  0672               	xorwf	??_time_date_delimiter,w
  8218  000F  0473               	iorwf	??_time_date_delimiter+1,w
  8219  0010  1D03               	skipz
  8220  0011  2813               	goto	u1561
  8221  0012  2814               	goto	u1560
  8222  0013                     u1561:	
  8223  0013  281E               	goto	l2916
  8224  0014                     u1560:	
  8225  0014                     l2910:	
  8226                           
  8227                           ;math_src.c: 29:     val = hex;
  8228  0014  0870               	movf	time_date_delimiter@hex,w
  8229  0015  00F2               	movwf	??_time_date_delimiter
  8230  0016  0872               	movf	??_time_date_delimiter,w
  8231  0017  00F4               	movwf	time_date_delimiter@val
  8232  0018                     l2912:	
  8233                           
  8234                           ;math_src.c: 30:     stats=0;
  8235  0018  1283               	bcf	3,5	;RP0=0, select bank0
  8236  0019  1303               	bcf	3,6	;RP1=0, select bank0
  8237  001A  01AB               	clrf	_stats
  8238  001B  01AC               	clrf	_stats+1
  8239  001C                     l2914:	
  8240                           
  8241                           ;math_src.c: 31:     val--;
  8242  001C  3001               	movlw	1
  8243  001D  02F4               	subwf	time_date_delimiter@val,f
  8244  001E                     l2916:	
  8245                           
  8246                           ;math_src.c: 33:     return val;
  8247  001E  0874               	movf	time_date_delimiter@val,w
  8248  001F                     l614:	
  8249  001F  0008               	return
  8250  0020                     __end_of_time_date_delimiter:	
  8251                           
  8252                           	psect	text34
  8253  1697                     __ptext34:	
  8254 ;; *************** function _set_time *****************
  8255 ;; Defined at:
  8256 ;;		line 15 in file "clock_src.c"
  8257 ;; Parameters:    Size  Location     Type
  8258 ;;		None
  8259 ;; Auto vars:     Size  Location     Type
  8260 ;;  i               2    5[COMMON] int 
  8261 ;; Return value:  Size  Location     Type
  8262 ;;                  1    wreg      void 
  8263 ;; Registers used:
  8264 ;;		wreg, fsr0l, fsr0h, status,2, status,0, btemp+1, pclath, cstack
  8265 ;; Tracked objects:
  8266 ;;		On entry : 0/0
  8267 ;;		On exit  : 0/0
  8268 ;;		Unchanged: 0/0
  8269 ;; Data sizes:     COMMON   BANK0   BANK1   BANK3   BANK2
  8270 ;;      Params:         0       0       0       0       0
  8271 ;;      Locals:         2       0       0       0       0
  8272 ;;      Temps:          0       0       0       0       0
  8273 ;;      Totals:         2       0       0       0       0
  8274 ;;Total ram usage:        2 bytes
  8275 ;; Hardware stack levels used:    1
  8276 ;; Hardware stack levels required when called:    1
  8277 ;; This function calls:
  8278 ;;		_time_write_1
  8279 ;; This function is called by:
  8280 ;;		_main
  8281 ;;		_time_settings
  8282 ;;		_date_settings
  8283 ;; This function uses a non-reentrant model
  8284 ;;
  8285                           
  8286                           
  8287                           ;psect for function _set_time
  8288  1697                     _set_time:	
  8289  1697                     l2686:	
  8290                           ;incstack = 0
  8291                           ; Regs used in _set_time: [wreg-fsr0h+status,2+status,0+btemp+1+pclath+cstack]
  8292                           
  8293                           
  8294                           ;clock_src.c: 17:    int i;;clock_src.c: 18:    RB5=1;
  8295  1697  1283               	bcf	3,5	;RP0=0, select bank0
  8296  1698  1303               	bcf	3,6	;RP1=0, select bank0
  8297  1699  1686               	bsf	6,5	;volatile
  8298  169A                     l2688:	
  8299                           
  8300                           ;clock_src.c: 19:    time_write_1(0xbe);
  8301  169A  30BE               	movlw	190
  8302  169B  160A  118A  2615  160A  118A  	fcall	_time_write_1
  8303  16A0                     l2690:	
  8304                           
  8305                           ;clock_src.c: 20:    for(i=0;i<8;i++)
  8306  16A0  01F5               	clrf	set_time@i
  8307  16A1  01F6               	clrf	set_time@i+1
  8308  16A2                     l2696:	
  8309                           
  8310                           ;clock_src.c: 21:      {;clock_src.c: 22:        time_write_1(table[i]);
  8311  16A2  0875               	movf	set_time@i,w
  8312  16A3  3E61               	addlw	(low (_table| 0))& (0+255)
  8313  16A4  0084               	movwf	4
  8314  16A5  1383               	bcf	3,7	;select IRP bank0
  8315  16A6  0800               	movf	0,w
  8316  16A7  160A  118A  2615  160A  118A  	fcall	_time_write_1
  8317  16AC                     l2698:	
  8318                           
  8319                           ;clock_src.c: 23:      }
  8320  16AC  3001               	movlw	1
  8321  16AD  07F5               	addwf	set_time@i,f
  8322  16AE  1803               	skipnc
  8323  16AF  0AF6               	incf	set_time@i+1,f
  8324  16B0  3000               	movlw	0
  8325  16B1  07F6               	addwf	set_time@i+1,f
  8326  16B2                     l2700:	
  8327  16B2  0876               	movf	set_time@i+1,w
  8328  16B3  3A80               	xorlw	128
  8329  16B4  00FF               	movwf	btemp+1
  8330  16B5  3080               	movlw	128
  8331  16B6  027F               	subwf	btemp+1,w
  8332  16B7  1D03               	skipz
  8333  16B8  2EBB               	goto	u1425
  8334  16B9  3008               	movlw	8
  8335  16BA  0275               	subwf	set_time@i,w
  8336  16BB                     u1425:	
  8337  16BB  1C03               	skipc
  8338  16BC  2EBE               	goto	u1421
  8339  16BD  2EBF               	goto	u1420
  8340  16BE                     u1421:	
  8341  16BE  2EA2               	goto	l2696
  8342  16BF                     u1420:	
  8343  16BF                     l321:	
  8344                           
  8345                           ;clock_src.c: 24:    RB5=0;
  8346  16BF  1283               	bcf	3,5	;RP0=0, select bank0
  8347  16C0  1303               	bcf	3,6	;RP1=0, select bank0
  8348  16C1  1286               	bcf	6,5	;volatile
  8349  16C2                     l322:	
  8350  16C2  0008               	return
  8351  16C3                     __end_of_set_time:	
  8352                           
  8353                           	psect	text35
  8354  1615                     __ptext35:	
  8355 ;; *************** function _time_write_1 *****************
  8356 ;; Defined at:
  8357 ;;		line 116 in file "clock_src.c"
  8358 ;; Parameters:    Size  Location     Type
  8359 ;;  time_tx         1    wreg     unsigned char 
  8360 ;; Auto vars:     Size  Location     Type
  8361 ;;  time_tx         1    4[COMMON] unsigned char 
  8362 ;;  j               2    2[COMMON] int 
  8363 ;; Return value:  Size  Location     Type
  8364 ;;                  1    wreg      void 
  8365 ;; Registers used:
  8366 ;;		wreg, status,2, status,0, btemp+1
  8367 ;; Tracked objects:
  8368 ;;		On entry : 0/0
  8369 ;;		On exit  : 0/0
  8370 ;;		Unchanged: 0/0
  8371 ;; Data sizes:     COMMON   BANK0   BANK1   BANK3   BANK2
  8372 ;;      Params:         0       0       0       0       0
  8373 ;;      Locals:         3       0       0       0       0
  8374 ;;      Temps:          2       0       0       0       0
  8375 ;;      Totals:         5       0       0       0       0
  8376 ;;Total ram usage:        5 bytes
  8377 ;; Hardware stack levels used:    1
  8378 ;; This function calls:
  8379 ;;		Nothing
  8380 ;; This function is called by:
  8381 ;;		_ds1302_init
  8382 ;;		_set_time
  8383 ;;		_get_time
  8384 ;; This function uses a non-reentrant model
  8385 ;;
  8386                           
  8387                           
  8388                           ;psect for function _time_write_1
  8389  1615                     _time_write_1:	
  8390                           
  8391                           ;incstack = 0
  8392                           ; Regs used in _time_write_1: [wreg+status,2+status,0+btemp+1]
  8393                           ;time_write_1@time_tx stored from wreg
  8394  1615  00F4               	movwf	time_write_1@time_tx
  8395  1616                     l2670:	
  8396                           
  8397                           ;clock_src.c: 116: void time_write_1(unsigned char time_tx);clock_src.c: 117: {;clock_sr
      +                          c.c: 118:     int j;;clock_src.c: 119:     for(j=0;j<8;j++)
  8398  1616  01F2               	clrf	time_write_1@j
  8399  1617  01F3               	clrf	time_write_1@j+1
  8400  1618                     l338:	
  8401                           
  8402                           ;clock_src.c: 120:    {;clock_src.c: 121:         RB4=0;
  8403  1618  1283               	bcf	3,5	;RP0=0, select bank0
  8404  1619  1303               	bcf	3,6	;RP1=0, select bank0
  8405  161A  1206               	bcf	6,4	;volatile
  8406                           
  8407                           ;clock_src.c: 122:         RB0=0;
  8408  161B  1006               	bcf	6,0	;volatile
  8409                           
  8410                           ;clock_src.c: 123:         if(time_tx&0x01)
  8411  161C  1C74               	btfss	time_write_1@time_tx,0
  8412  161D  2E1F               	goto	u1401
  8413  161E  2E20               	goto	u1400
  8414  161F                     u1401:	
  8415  161F  2E21               	goto	l2678
  8416  1620                     u1400:	
  8417  1620                     l2676:	
  8418                           
  8419                           ;clock_src.c: 124:           {;clock_src.c: 125:             RB4=1;
  8420  1620  1606               	bsf	6,4	;volatile
  8421  1621                     l2678:	
  8422                           
  8423                           ;clock_src.c: 127:         time_tx=time_tx>>1;
  8424  1621  0874               	movf	time_write_1@time_tx,w
  8425  1622  00F0               	movwf	??_time_write_1
  8426  1623  1003               	clrc
  8427  1624  0C70               	rrf	??_time_write_1,w
  8428  1625  00F1               	movwf	??_time_write_1+1
  8429  1626  0871               	movf	??_time_write_1+1,w
  8430  1627  00F4               	movwf	time_write_1@time_tx
  8431  1628                     l2680:	
  8432                           
  8433                           ;clock_src.c: 128:         RB0=1;
  8434  1628  1406               	bsf	6,0	;volatile
  8435  1629                     l2682:	
  8436                           
  8437                           ;clock_src.c: 129:     }
  8438  1629  3001               	movlw	1
  8439  162A  07F2               	addwf	time_write_1@j,f
  8440  162B  1803               	skipnc
  8441  162C  0AF3               	incf	time_write_1@j+1,f
  8442  162D  3000               	movlw	0
  8443  162E  07F3               	addwf	time_write_1@j+1,f
  8444  162F                     l2684:	
  8445  162F  0873               	movf	time_write_1@j+1,w
  8446  1630  3A80               	xorlw	128
  8447  1631  00FF               	movwf	btemp+1
  8448  1632  3080               	movlw	128
  8449  1633  027F               	subwf	btemp+1,w
  8450  1634  1D03               	skipz
  8451  1635  2E38               	goto	u1415
  8452  1636  3008               	movlw	8
  8453  1637  0272               	subwf	time_write_1@j,w
  8454  1638                     u1415:	
  8455  1638  1C03               	skipc
  8456  1639  2E3B               	goto	u1411
  8457  163A  2E3C               	goto	u1410
  8458  163B                     u1411:	
  8459  163B  2E18               	goto	l338
  8460  163C                     u1410:	
  8461  163C                     l339:	
  8462                           
  8463                           ;clock_src.c: 130:       RB0=0;
  8464  163C  1283               	bcf	3,5	;RP0=0, select bank0
  8465  163D  1303               	bcf	3,6	;RP1=0, select bank0
  8466  163E  1006               	bcf	6,0	;volatile
  8467  163F                     l341:	
  8468  163F  0008               	return
  8469  1640                     __end_of_time_write_1:	
  8470                           
  8471                           	psect	text36
  8472  166B                     __ptext36:	
  8473 ;; *************** function _incrementor *****************
  8474 ;; Defined at:
  8475 ;;		line 10 in file "math_src.c"
  8476 ;; Parameters:    Size  Location     Type
  8477 ;;  upper_val       2    0[BANK0 ] int 
  8478 ;;  lower_val       2    2[BANK0 ] int 
  8479 ;;  z               1    4[BANK0 ] unsigned char 
  8480 ;; Auto vars:     Size  Location     Type
  8481 ;;		None
  8482 ;; Return value:  Size  Location     Type
  8483 ;;                  1    wreg      unsigned char 
  8484 ;; Registers used:
  8485 ;;		wreg, status,2, status,0, pclath, cstack
  8486 ;; Tracked objects:
  8487 ;;		On entry : 0/0
  8488 ;;		On exit  : 0/0
  8489 ;;		Unchanged: 0/0
  8490 ;; Data sizes:     COMMON   BANK0   BANK1   BANK3   BANK2
  8491 ;;      Params:         0       5       0       0       0
  8492 ;;      Locals:         0       0       0       0       0
  8493 ;;      Temps:          2       0       0       0       0
  8494 ;;      Totals:         2       5       0       0       0
  8495 ;;Total ram usage:        7 bytes
  8496 ;; Hardware stack levels used:    1
  8497 ;; Hardware stack levels required when called:    2
  8498 ;; This function calls:
  8499 ;;		_modulus_func
  8500 ;; This function is called by:
  8501 ;;		_thermometer_threshhold_settings
  8502 ;;		_time_settings
  8503 ;;		_date_settings
  8504 ;; This function uses a non-reentrant model
  8505 ;;
  8506                           
  8507                           
  8508                           ;psect for function _incrementor
  8509  166B                     _incrementor:	
  8510  166B                     l2880:	
  8511                           ;incstack = 0
  8512                           ; Regs used in _incrementor: [wreg+status,2+status,0+pclath+cstack]
  8513                           
  8514                           
  8515                           ;math_src.c: 11:      if(z == (lower_val + '0')){
  8516  166B  1283               	bcf	3,5	;RP0=0, select bank0
  8517  166C  1303               	bcf	3,6	;RP1=0, select bank0
  8518  166D  0857               	movf	incrementor@lower_val,w
  8519  166E  3E30               	addlw	48
  8520  166F  00FB               	movwf	??_incrementor
  8521  1670  0858               	movf	incrementor@lower_val+1,w
  8522  1671  1803               	skipnc
  8523  1672  3E01               	addlw	1
  8524  1673  3E00               	addlw	0
  8525  1674  00FC               	movwf	??_incrementor+1
  8526  1675  0859               	movf	incrementor@z,w
  8527  1676  067B               	xorwf	??_incrementor,w
  8528  1677  047C               	iorwf	??_incrementor+1,w
  8529  1678  1D03               	skipz
  8530  1679  2E7B               	goto	u1531
  8531  167A  2E7C               	goto	u1530
  8532  167B                     u1531:	
  8533  167B  2E95               	goto	l2886
  8534  167C                     u1530:	
  8535  167C                     l2882:	
  8536                           
  8537                           ;math_src.c: 12:      upper_val++;
  8538  167C  3001               	movlw	1
  8539  167D  07D5               	addwf	incrementor@upper_val,f
  8540  167E  1803               	skipnc
  8541  167F  0AD6               	incf	incrementor@upper_val+1,f
  8542  1680  3000               	movlw	0
  8543  1681  07D6               	addwf	incrementor@upper_val+1,f
  8544  1682                     l2884:	
  8545                           
  8546                           ;math_src.c: 13:      upper_val =(modulus_func(upper_val,10));
  8547  1682  0856               	movf	incrementor@upper_val+1,w
  8548  1683  00F8               	movwf	modulus_func@x+1
  8549  1684  0855               	movf	incrementor@upper_val,w
  8550  1685  00F7               	movwf	modulus_func@x
  8551  1686  300A               	movlw	10
  8552  1687  00F9               	movwf	modulus_func@y
  8553  1688  3000               	movlw	0
  8554  1689  00FA               	movwf	modulus_func@y+1
  8555  168A  160A  118A  24E2  160A  118A  	fcall	_modulus_func
  8556  168F  0878               	movf	?_modulus_func+1,w
  8557  1690  1283               	bcf	3,5	;RP0=0, select bank0
  8558  1691  1303               	bcf	3,6	;RP1=0, select bank0
  8559  1692  00D6               	movwf	incrementor@upper_val+1
  8560  1693  0877               	movf	?_modulus_func,w
  8561  1694  00D5               	movwf	incrementor@upper_val
  8562  1695                     l2886:	
  8563                           
  8564                           ;math_src.c: 15:      return upper_val;
  8565  1695  0855               	movf	incrementor@upper_val,w
  8566  1696                     l606:	
  8567  1696  0008               	return
  8568  1697                     __end_of_incrementor:	
  8569                           
  8570                           	psect	text37
  8571  14E2                     __ptext37:	
  8572 ;; *************** function _modulus_func *****************
  8573 ;; Defined at:
  8574 ;;		line 5 in file "math_src.c"
  8575 ;; Parameters:    Size  Location     Type
  8576 ;;  x               2    7[COMMON] int 
  8577 ;;  y               2    9[COMMON] int 
  8578 ;; Auto vars:     Size  Location     Type
  8579 ;;		None
  8580 ;; Return value:  Size  Location     Type
  8581 ;;                  2    7[COMMON] int 
  8582 ;; Registers used:
  8583 ;;		wreg, status,2, status,0, pclath, cstack
  8584 ;; Tracked objects:
  8585 ;;		On entry : 0/0
  8586 ;;		On exit  : 0/0
  8587 ;;		Unchanged: 0/0
  8588 ;; Data sizes:     COMMON   BANK0   BANK1   BANK3   BANK2
  8589 ;;      Params:         4       0       0       0       0
  8590 ;;      Locals:         0       0       0       0       0
  8591 ;;      Temps:          0       0       0       0       0
  8592 ;;      Totals:         4       0       0       0       0
  8593 ;;Total ram usage:        4 bytes
  8594 ;; Hardware stack levels used:    1
  8595 ;; Hardware stack levels required when called:    1
  8596 ;; This function calls:
  8597 ;;		___awmod
  8598 ;; This function is called by:
  8599 ;;		_main
  8600 ;;		_thermometer_threshhold_settings
  8601 ;;		_time_settings
  8602 ;;		_date_settings
  8603 ;;		_incrementor
  8604 ;;		_decrementor
  8605 ;; This function uses a non-reentrant model
  8606 ;;
  8607                           
  8608                           
  8609                           ;psect for function _modulus_func
  8610  14E2                     _modulus_func:	
  8611  14E2                     l2648:	
  8612                           ;incstack = 0
  8613                           ; Regs used in _modulus_func: [wreg+status,2+status,0+pclath+cstack]
  8614                           
  8615                           
  8616                           ;math_src.c: 6:     x = x % y;
  8617  14E2  087A               	movf	modulus_func@y+1,w
  8618  14E3  00F1               	movwf	___awmod@divisor+1
  8619  14E4  0879               	movf	modulus_func@y,w
  8620  14E5  00F0               	movwf	___awmod@divisor
  8621  14E6  0878               	movf	modulus_func@x+1,w
  8622  14E7  00F3               	movwf	___awmod@dividend+1
  8623  14E8  0877               	movf	modulus_func@x,w
  8624  14E9  00F2               	movwf	___awmod@dividend
  8625  14EA  120A  158A  210F  160A  118A  	fcall	___awmod
  8626  14EF  0871               	movf	?___awmod+1,w
  8627  14F0  00F8               	movwf	modulus_func@x+1
  8628  14F1  0870               	movf	?___awmod,w
  8629  14F2  00F7               	movwf	modulus_func@x
  8630  14F3                     l2650:	
  8631  14F3                     l602:	
  8632                           ;math_src.c: 7:     return x;
  8633                           
  8634  14F3  0008               	return
  8635  14F4                     __end_of_modulus_func:	
  8636                           
  8637                           	psect	text38
  8638  090F                     __ptext38:	
  8639 ;; *************** function ___awmod *****************
  8640 ;; Defined at:
  8641 ;;		line 5 in file "C:\Program Files (x86)\Microchip\xc8\v2.10\pic\sources\c90\common\awmod.c"
  8642 ;; Parameters:    Size  Location     Type
  8643 ;;  divisor         2    0[COMMON] int 
  8644 ;;  dividend        2    2[COMMON] int 
  8645 ;; Auto vars:     Size  Location     Type
  8646 ;;  sign            1    6[COMMON] unsigned char 
  8647 ;;  counter         1    5[COMMON] unsigned char 
  8648 ;; Return value:  Size  Location     Type
  8649 ;;                  2    0[COMMON] int 
  8650 ;; Registers used:
  8651 ;;		wreg, status,2, status,0
  8652 ;; Tracked objects:
  8653 ;;		On entry : 0/0
  8654 ;;		On exit  : 0/0
  8655 ;;		Unchanged: 0/0
  8656 ;; Data sizes:     COMMON   BANK0   BANK1   BANK3   BANK2
  8657 ;;      Params:         4       0       0       0       0
  8658 ;;      Locals:         2       0       0       0       0
  8659 ;;      Temps:          1       0       0       0       0
  8660 ;;      Totals:         7       0       0       0       0
  8661 ;;Total ram usage:        7 bytes
  8662 ;; Hardware stack levels used:    1
  8663 ;; This function calls:
  8664 ;;		Nothing
  8665 ;; This function is called by:
  8666 ;;		_get_temp
  8667 ;;		_modulus_func
  8668 ;; This function uses a non-reentrant model
  8669 ;;
  8670                           
  8671                           
  8672                           ;psect for function ___awmod
  8673  090F                     ___awmod:	
  8674  090F                     l2610:	
  8675                           ;incstack = 0
  8676                           ; Regs used in ___awmod: [wreg+status,2+status,0]
  8677                           
  8678  090F  01F6               	clrf	___awmod@sign
  8679  0910                     l2612:	
  8680  0910  1FF3               	btfss	___awmod@dividend+1,7
  8681  0911  2913               	goto	u1281
  8682  0912  2914               	goto	u1280
  8683  0913                     u1281:	
  8684  0913  291B               	goto	l2618
  8685  0914                     u1280:	
  8686  0914                     l2614:	
  8687  0914  09F2               	comf	___awmod@dividend,f
  8688  0915  09F3               	comf	___awmod@dividend+1,f
  8689  0916  0AF2               	incf	___awmod@dividend,f
  8690  0917  1903               	skipnz
  8691  0918  0AF3               	incf	___awmod@dividend+1,f
  8692  0919                     l2616:	
  8693  0919  01F6               	clrf	___awmod@sign
  8694  091A  0AF6               	incf	___awmod@sign,f
  8695  091B                     l2618:	
  8696  091B  1FF1               	btfss	___awmod@divisor+1,7
  8697  091C  291E               	goto	u1291
  8698  091D  291F               	goto	u1290
  8699  091E                     u1291:	
  8700  091E  2924               	goto	l2622
  8701  091F                     u1290:	
  8702  091F                     l2620:	
  8703  091F  09F0               	comf	___awmod@divisor,f
  8704  0920  09F1               	comf	___awmod@divisor+1,f
  8705  0921  0AF0               	incf	___awmod@divisor,f
  8706  0922  1903               	skipnz
  8707  0923  0AF1               	incf	___awmod@divisor+1,f
  8708  0924                     l2622:	
  8709  0924  0870               	movf	___awmod@divisor,w
  8710  0925  0471               	iorwf	___awmod@divisor+1,w
  8711  0926  1903               	btfsc	3,2
  8712  0927  2929               	goto	u1301
  8713  0928  292A               	goto	u1300
  8714  0929                     u1301:	
  8715  0929  2959               	goto	l2640
  8716  092A                     u1300:	
  8717  092A                     l2624:	
  8718  092A  01F5               	clrf	___awmod@counter
  8719  092B  0AF5               	incf	___awmod@counter,f
  8720  092C  2938               	goto	l2630
  8721  092D                     l2626:	
  8722  092D  3001               	movlw	1
  8723  092E                     u1315:	
  8724  092E  1003               	clrc
  8725  092F  0DF0               	rlf	___awmod@divisor,f
  8726  0930  0DF1               	rlf	___awmod@divisor+1,f
  8727  0931  3EFF               	addlw	-1
  8728  0932  1D03               	skipz
  8729  0933  292E               	goto	u1315
  8730  0934                     l2628:	
  8731  0934  3001               	movlw	1
  8732  0935  00F4               	movwf	??___awmod
  8733  0936  0874               	movf	??___awmod,w
  8734  0937  07F5               	addwf	___awmod@counter,f
  8735  0938                     l2630:	
  8736  0938  1FF1               	btfss	___awmod@divisor+1,7
  8737  0939  293B               	goto	u1321
  8738  093A  293C               	goto	u1320
  8739  093B                     u1321:	
  8740  093B  292D               	goto	l2626
  8741  093C                     u1320:	
  8742  093C                     l2632:	
  8743  093C  0871               	movf	___awmod@divisor+1,w
  8744  093D  0273               	subwf	___awmod@dividend+1,w
  8745  093E  1D03               	skipz
  8746  093F  2942               	goto	u1335
  8747  0940  0870               	movf	___awmod@divisor,w
  8748  0941  0272               	subwf	___awmod@dividend,w
  8749  0942                     u1335:	
  8750  0942  1C03               	skipc
  8751  0943  2945               	goto	u1331
  8752  0944  2946               	goto	u1330
  8753  0945                     u1331:	
  8754  0945  294C               	goto	l2636
  8755  0946                     u1330:	
  8756  0946                     l2634:	
  8757  0946  0870               	movf	___awmod@divisor,w
  8758  0947  02F2               	subwf	___awmod@dividend,f
  8759  0948  0871               	movf	___awmod@divisor+1,w
  8760  0949  1C03               	skipc
  8761  094A  03F3               	decf	___awmod@dividend+1,f
  8762  094B  02F3               	subwf	___awmod@dividend+1,f
  8763  094C                     l2636:	
  8764  094C  3001               	movlw	1
  8765  094D                     u1345:	
  8766  094D  1003               	clrc
  8767  094E  0CF1               	rrf	___awmod@divisor+1,f
  8768  094F  0CF0               	rrf	___awmod@divisor,f
  8769  0950  3EFF               	addlw	-1
  8770  0951  1D03               	skipz
  8771  0952  294D               	goto	u1345
  8772  0953                     l2638:	
  8773  0953  3001               	movlw	1
  8774  0954  02F5               	subwf	___awmod@counter,f
  8775  0955  1D03               	btfss	3,2
  8776  0956  2958               	goto	u1351
  8777  0957  2959               	goto	u1350
  8778  0958                     u1351:	
  8779  0958  293C               	goto	l2632
  8780  0959                     u1350:	
  8781  0959                     l2640:	
  8782  0959  0876               	movf	___awmod@sign,w
  8783  095A  1903               	btfsc	3,2
  8784  095B  295D               	goto	u1361
  8785  095C  295E               	goto	u1360
  8786  095D                     u1361:	
  8787  095D  2963               	goto	l2644
  8788  095E                     u1360:	
  8789  095E                     l2642:	
  8790  095E  09F2               	comf	___awmod@dividend,f
  8791  095F  09F3               	comf	___awmod@dividend+1,f
  8792  0960  0AF2               	incf	___awmod@dividend,f
  8793  0961  1903               	skipnz
  8794  0962  0AF3               	incf	___awmod@dividend+1,f
  8795  0963                     l2644:	
  8796  0963  0873               	movf	___awmod@dividend+1,w
  8797  0964  00F1               	movwf	?___awmod+1
  8798  0965  0872               	movf	___awmod@dividend,w
  8799  0966  00F0               	movwf	?___awmod
  8800  0967                     l946:	
  8801  0967  0008               	return
  8802  0968                     __end_of___awmod:	
  8803                           
  8804                           	psect	text39
  8805  1540                     __ptext39:	
  8806 ;; *************** function _button_delay *****************
  8807 ;; Defined at:
  8808 ;;		line 521 in file "Button_src.c"
  8809 ;; Parameters:    Size  Location     Type
  8810 ;;		None
  8811 ;; Auto vars:     Size  Location     Type
  8812 ;;  i               2    0[COMMON] int 
  8813 ;; Return value:  Size  Location     Type
  8814 ;;                  1    wreg      void 
  8815 ;; Registers used:
  8816 ;;		wreg, status,2, btemp+1
  8817 ;; Tracked objects:
  8818 ;;		On entry : 0/0
  8819 ;;		On exit  : 0/0
  8820 ;;		Unchanged: 0/0
  8821 ;; Data sizes:     COMMON   BANK0   BANK1   BANK3   BANK2
  8822 ;;      Params:         0       0       0       0       0
  8823 ;;      Locals:         2       0       0       0       0
  8824 ;;      Temps:          0       0       0       0       0
  8825 ;;      Totals:         2       0       0       0       0
  8826 ;;Total ram usage:        2 bytes
  8827 ;; Hardware stack levels used:    1
  8828 ;; This function calls:
  8829 ;;		Nothing
  8830 ;; This function is called by:
  8831 ;;		_set_beep_threshhold
  8832 ;;		_thermometer_threshhold_settings
  8833 ;;		_time_settings
  8834 ;;		_date_settings
  8835 ;; This function uses a non-reentrant model
  8836 ;;
  8837                           
  8838                           
  8839                           ;psect for function _button_delay
  8840  1540                     _button_delay:	
  8841  1540                     l2870:	
  8842                           ;incstack = 0
  8843                           ; Regs used in _button_delay: [wreg+status,2+btemp+1]
  8844                           
  8845                           
  8846                           ;Button_src.c: 522:     for(int i=0;i<10000;i++);
  8847  1540  01F0               	clrf	button_delay@i
  8848  1541  01F1               	clrf	button_delay@i+1
  8849  1542                     l2876:	
  8850  1542  3001               	movlw	1
  8851  1543  07F0               	addwf	button_delay@i,f
  8852  1544  1803               	skipnc
  8853  1545  0AF1               	incf	button_delay@i+1,f
  8854  1546  3000               	movlw	0
  8855  1547  07F1               	addwf	button_delay@i+1,f
  8856  1548                     l2878:	
  8857  1548  0871               	movf	button_delay@i+1,w
  8858  1549  3A80               	xorlw	128
  8859  154A  00FF               	movwf	btemp+1
  8860  154B  30A7               	movlw	167
  8861  154C  027F               	subwf	btemp+1,w
  8862  154D  1D03               	skipz
  8863  154E  2D51               	goto	u1525
  8864  154F  3010               	movlw	16
  8865  1550  0270               	subwf	button_delay@i,w
  8866  1551                     u1525:	
  8867  1551  1C03               	skipc
  8868  1552  2D54               	goto	u1521
  8869  1553  2D55               	goto	u1520
  8870  1554                     u1521:	
  8871  1554  2D42               	goto	l2876
  8872  1555                     u1520:	
  8873  1555                     l571:	
  8874  1555  0008               	return
  8875  1556                     __end_of_button_delay:	
  8876  007E                     btemp	set	126	;btemp
  8877  007E                     wtemp0	set	126


Data Sizes:
    Strings     0
    Constant    0
    Data        8
    BSS         53
    Persistent  0
    Stack       0

Auto Spaces:
    Space          Size  Autos    Used
    COMMON           14     14      14
    BANK0            80     12      73
    BANK1            80      0       0
    BANK3            96      0       0
    BANK2            96      0       0

Pointer List with Targets:

    None.

Critical Paths under _main in COMMON

    _time_settings->_incrementor
    _thermometer_threshhold_settings->_decrementor
    _thermometer_threshhold_settings->_incrementor
    _decrementor->_modulus_func
    _set_upper_threshold->_write_char
    _set_lower_threshold->_write_char
    _set_beep_threshhold->_button_delay
    _lcd_init->_write_cmd
    _get_time->_time_read_1
    _get_time->_time_write_1
    _get_temp->___lwdiv
    _write_byte->_delay_temp
    _reset_temp->_delay_temp
    _read_byte->_delay_temp
    ___lwdiv->___lwmod
    _ds1302_init->_time_write_1
    _display_temp->_write_char
    _display_day->_write_char
    _display_date->_write_char
    _display_clock->_write_char
    _date_settings->_incrementor
    _write_cmd->_delay_screen
    _write_char->_delay_screen
    _set_time->_time_write_1
    _incrementor->_modulus_func
    _modulus_func->___awmod

Critical Paths under _main in BANK0

    _main->_thermometer_threshhold_settings
    _time_settings->_incrementor
    _thermometer_threshhold_settings->_decrementor
    _thermometer_threshhold_settings->_incrementor
    _date_settings->_incrementor

Critical Paths under _main in BANK1

    None.

Critical Paths under _main in BANK3

    None.

Critical Paths under _main in BANK2

    None.

Call Graph Tables:

 ---------------------------------------------------------------------------------
 (Depth) Function   	        Calls       Base Space   Used Autos Params    Refs
 ---------------------------------------------------------------------------------
 (0) _main                                                 2     2      0   38638
                                             10 BANK0      2     2      0
                      _date_settings
                      _display_clock
                       _display_date
                        _display_day
                       _display_temp
                        _ds1302_init
                           _get_temp
                           _get_time
                               _init
                          _init_temp
                 _initialise_buttons
                           _lcd_init
                       _modulus_func
                        _reset_alarm
                _set_beep_threshhold
                _set_lower_threshold
                           _set_time
                _set_upper_threshold
    _thermometer_threshhold_settings
                      _time_settings
                         _write_char
                          _write_cmd
 ---------------------------------------------------------------------------------
 (1) _time_settings                                        3     3      0   10206
                                              5 BANK0      3     3      0
                       _button_delay
                        _incrementor
                       _modulus_func
                           _set_time
                _time_date_delimiter
           _time_date_hex_terminator
                         _write_char
                          _write_cmd
 ---------------------------------------------------------------------------------
 (1) _thermometer_threshhold_settings                      5     5      0    9477
                                              5 BANK0      5     5      0
                       _button_delay
                        _decrementor
                        _incrementor
                       _modulus_func
                         _write_char
                          _write_cmd
 ---------------------------------------------------------------------------------
 (2) _decrementor                                          7     2      5    2809
                                             11 COMMON     2     2      0
                                              0 BANK0      5     0      5
                       _modulus_func
 ---------------------------------------------------------------------------------
 (1) _set_upper_threshold                                  6     2      4     264
                                              3 COMMON     6     2      4
                         _write_char
 ---------------------------------------------------------------------------------
 (1) _set_lower_threshold                                  6     2      4     286
                                              3 COMMON     6     2      4
                         _write_char
 ---------------------------------------------------------------------------------
 (1) _set_beep_threshhold                                  1     1      0      68
                                              2 COMMON     1     1      0
                       _button_delay
 ---------------------------------------------------------------------------------
 (1) _reset_alarm                                          1     1      0       0
                                              0 COMMON     1     1      0
 ---------------------------------------------------------------------------------
 (1) _lcd_init                                             2     2      0     114
                       _delay_screen
                          _write_cmd
 ---------------------------------------------------------------------------------
 (1) _initialise_buttons                                   0     0      0       0
 ---------------------------------------------------------------------------------
 (1) _init_temp                                            0     0      0       0
 ---------------------------------------------------------------------------------
 (1) _init                                                 0     0      0       0
 ---------------------------------------------------------------------------------
 (1) _get_time                                             3     3      0     274
                                              5 COMMON     3     3      0
                        _time_read_1
                       _time_write_1
 ---------------------------------------------------------------------------------
 (2) _time_read_1                                          5     5      0     115
                                              0 COMMON     5     5      0
 ---------------------------------------------------------------------------------
 (1) _get_temp                                             6     6      0    3882
                                              0 BANK0      4     4      0
                            ___awdiv
                            ___awmod
                            ___lwdiv
                            ___lwmod
                             _delay2
                          _read_byte
                         _reset_temp
                         _write_byte
 ---------------------------------------------------------------------------------
 (2) _write_byte                                           5     5      0     561
                                              4 COMMON     5     5      0
                         _delay_temp
 ---------------------------------------------------------------------------------
 (2) _reset_temp                                           2     2      0     472
                                              4 COMMON     2     2      0
                         _delay_temp
 ---------------------------------------------------------------------------------
 (2) _read_byte                                            3     3      0     518
                                              4 COMMON     3     3      0
                         _delay_temp
 ---------------------------------------------------------------------------------
 (3) _delay_temp                                           4     3      1     447
                                              0 COMMON     4     3      1
 ---------------------------------------------------------------------------------
 (2) _delay2                                               2     2      0      46
                                              0 COMMON     2     2      0
 ---------------------------------------------------------------------------------
 (2) ___lwmod                                              6     2      4     615
                                              0 COMMON     6     2      4
 ---------------------------------------------------------------------------------
 (2) ___lwdiv                                              8     4      4     618
                                              6 COMMON     8     4      4
                            ___lwmod (ARG)
 ---------------------------------------------------------------------------------
 (2) ___awdiv                                              9     5      4     452
                                              0 COMMON     9     5      4
 ---------------------------------------------------------------------------------
 (1) _ds1302_init                                          0     0      0      91
                       _time_write_1
 ---------------------------------------------------------------------------------
 (1) _display_temp                                         0     0      0      68
                         _write_char
 ---------------------------------------------------------------------------------
 (1) _display_day                                          2     0      2     320
                                              3 COMMON     2     0      2
                         _write_char
 ---------------------------------------------------------------------------------
 (1) _display_date                                         4     4      0     275
                                              3 COMMON     4     4      0
                         _write_char
 ---------------------------------------------------------------------------------
 (1) _display_clock                                        4     4      0     275
                                              3 COMMON     4     4      0
                         _write_char
 ---------------------------------------------------------------------------------
 (1) _date_settings                                        3     3      0   10206
                                              5 BANK0      3     3      0
                       _button_delay
                        _incrementor
                       _modulus_func
                           _set_time
                _time_date_delimiter
           _time_date_hex_terminator
                         _write_char
                          _write_cmd
 ---------------------------------------------------------------------------------
 (1) _write_cmd                                            3     3      0      68
                                              2 COMMON     1     1      0
                       _delay_screen
 ---------------------------------------------------------------------------------
 (1) _write_char                                           3     3      0      68
                                              2 COMMON     1     1      0
                       _delay_screen
 ---------------------------------------------------------------------------------
 (2) _delay_screen                                         2     2      0      46
                                              0 COMMON     2     2      0
 ---------------------------------------------------------------------------------
 (2) _time_date_hex_terminator                             4     3      1     295
                                              0 COMMON     4     3      1
 ---------------------------------------------------------------------------------
 (2) _time_date_delimiter                                  5     3      2    3130
                                              0 COMMON     5     3      2
 ---------------------------------------------------------------------------------
 (2) _set_time                                             2     2      0     159
                                              5 COMMON     2     2      0
                       _time_write_1
 ---------------------------------------------------------------------------------
 (3) _time_write_1                                         5     5      0      91
                                              0 COMMON     5     5      0
 ---------------------------------------------------------------------------------
 (2) _incrementor                                          7     2      5    3949
                                             11 COMMON     2     2      0
                                              0 BANK0      5     0      5
                       _modulus_func
 ---------------------------------------------------------------------------------
 (2) _modulus_func                                         4     0      4    2491
                                              7 COMMON     4     0      4
                            ___awmod
 ---------------------------------------------------------------------------------
 (3) ___awmod                                              7     3      4     600
                                              0 COMMON     7     3      4
 ---------------------------------------------------------------------------------
 (2) _button_delay                                         2     2      0      46
                                              0 COMMON     2     2      0
 ---------------------------------------------------------------------------------
 Estimated maximum stack depth 3
 ---------------------------------------------------------------------------------

 Call Graph Graphs:

 _main (ROOT)
   _date_settings
     _button_delay
     _incrementor
       _modulus_func
         ___awmod
     _modulus_func
       ___awmod
     _set_time
       _time_write_1
     _time_date_delimiter
     _time_date_hex_terminator
     _write_char
       _delay_screen
     _write_cmd
       _delay_screen
   _display_clock
     _write_char
       _delay_screen
   _display_date
     _write_char
       _delay_screen
   _display_day
     _write_char
       _delay_screen
   _display_temp
     _write_char
       _delay_screen
   _ds1302_init
     _time_write_1
   _get_temp
     ___awdiv
     ___awmod
     ___lwdiv
       ___lwmod (ARG)
     ___lwmod
     _delay2
     _read_byte
       _delay_temp
     _reset_temp
       _delay_temp
     _write_byte
       _delay_temp
   _get_time
     _time_read_1
     _time_write_1
   _init
   _init_temp
   _initialise_buttons
   _lcd_init
     _delay_screen
     _write_cmd
       _delay_screen
   _modulus_func
     ___awmod
   _reset_alarm
   _set_beep_threshhold
     _button_delay
   _set_lower_threshold
     _write_char
       _delay_screen
   _set_time
     _time_write_1
   _set_upper_threshold
     _write_char
       _delay_screen
   _thermometer_threshhold_settings
     _button_delay
     _decrementor
       _modulus_func
         ___awmod
     _incrementor
       _modulus_func
         ___awmod
     _modulus_func
       ___awmod
     _write_char
       _delay_screen
     _write_cmd
       _delay_screen
   _time_settings
     _button_delay
     _incrementor
       _modulus_func
         ___awmod
     _modulus_func
       ___awmod
     _set_time
       _time_write_1
     _time_date_delimiter
     _time_date_hex_terminator
     _write_char
       _delay_screen
     _write_cmd
       _delay_screen
   _write_char
     _delay_screen
   _write_cmd
     _delay_screen

 Address spaces:
Name               Size   Autos  Total    Cost      Usage
BANK3               60      0       0       9        0.0%
BITBANK3            60      0       0       8        0.0%
SFR3                 0      0       0       4        0.0%
BITSFR3              0      0       0       4        0.0%
BANK2               60      0       0      11        0.0%
BITBANK2            60      0       0      10        0.0%
SFR2                 0      0       0       5        0.0%
BITSFR2              0      0       0       5        0.0%
BANK1               50      0       0       7        0.0%
BITBANK1            50      0       0       6        0.0%
SFR1                 0      0       0       2        0.0%
BITSFR1              0      0       0       2        0.0%
BANK0               50      C      49       5       91.3%
BITBANK0            50      0       0       4        0.0%
SFR0                 0      0       0       1        0.0%
BITSFR0              0      0       0       1        0.0%
COMMON               E      E       E       1      100.0%
BITCOMMON            E      0       0       0        0.0%
CODE                 0      0       0       0        0.0%
DATA                 0      0      57      12        0.0%
ABS                  0      0      57       3        0.0%
NULL                 0      0       0       0        0.0%
STACK                0      0       0       2        0.0%
EEDATA             100      0       0       0        0.0%


Microchip Technology PIC Macro Assembler V2.10 build 88905656 
Symbol Table                                                                                   Thu Dec 05 00:49:43 2019

                                       _a 004A                                         _b 0049  
                                       _c 0048                                         _t 003B  
                                       _w 0039                                         _x 0037  
                                       _y 0035                                         _z 0033  
                                       pc 0002              set_lower_threshold@lower_val 0075  
                            ?_display_day 0073                                        _TX 0051  
                                      _TZ 0052                              ___awdiv@sign 0076  
                                      _ge 004F                                        _wd 003D  
                                      fsr 0004         __size_of_time_date_hex_terminator 0012  
               ?_time_date_hex_terminator 0070                       _set_beep_threshhold 15CA  
                           ?_display_date 0070                                       l160 1614  
                                     l321 16BF                                       l322 16C2  
                                     l163 15B0                                       l331 0A74  
                                     l252 166A                                       l260 17FF  
                                     l341 163F                                       l317 153F  
                                     l157 14D0                                       l166 15C9  
                                     l326 1719                                       l335 0B1A  
                                     l327 171C                                       l415 15EC  
                                     l176 156B                                       l256 17C9  
                                     l344 1723                                       l345 174A  
                                     l249 14B7                                       l602 14F3  
                                     l338 1618                                       l274 17C5  
                                     l266 0840                                       l282 0C48  
                                     l610 16EE                                       l522 0F37  
                                     l339 163C                                       l347 1751  
                                     l515 1597                                       l285 1507  
                                     l525 0FFF                                       l541 02B3  
                                     l606 1696                                       l614 001F  
                                     l550 03D3                                       l294 1581  
                                     l542 03C2                                       l527 0FA8  
                                     l519 0D88                                       l535 00E5  
                                     l560 068F                                       l552 0441  
                                     l528 0FF1                                       l544 034E  
                                     l553 044B                                       l561 07E5  
                                     l289 1517                                       l618 1505  
                                     l571 1555                                       l674 090E  
                                     l666 087E                                       l933 09CE  
                                     l694 00D4                                       l678 14E1  
                                     l946 0967                                       _RA0 0028  
                                     _RA2 002A                                       _RB0 0030  
                                     _RA3 002B                                       _RB1 0031  
                                     _RA4 002C                                       _RC0 0038  
                                     _RA5 002D                                       _RC1 0039  
                                     _RB4 0034                                       _RC2 003A  
                                     _RB5 0035                                       _RC3 003B  
                                     _RE0 0048                                       _RC4 003C  
                                     _RE2 004A                                       _RC6 003E  
                                     _RC7 003F                                       _THV 0053  
                           ?_display_temp 0070                                       _TLV 0054  
                                     _shi 0050                                       fsr0 0004  
                                     indf 0000                              ___awmod@sign 0076  
                            __CFG_FOSC$HS 0000                           ??_time_settings 005A  
                            __CFG_LVP$OFF 0000              set_lower_threshold@upper_val 0073  
                                    l1052 08C2                                      l1062 178B  
                                    l3000 176A                                      l3002 1774  
                                    l3004 177A                                      l3100 0BD5  
                                    l3020 14C8                                      l3012 14B1  
                                    l3014 152B                                      l3006 1781  
                                    l3110 0C34                                      l3102 0BD9  
                                    l3022 14CC                                      l3030 15ED  
                                    l3200 0A4F                                      l3016 1530  
                                    l3008 1787                                      l3112 0C47  
                                    l3104 0BE1                                      l3024 14CD  
                                    l3040 15FC                                      l3032 15F0  
                                    l3202 0A5C                                      l3130 1640  
                                    l3018 153C                                      l3106 0BF4  
                                    l3114 16EF                                      l3026 14CE  
                                    l3050 1588                                      l3042 1602  
                                    l3034 15F3                                      l3210 0D82  
                                    l3204 0A63                                      l3140 0A98  
                                    l3132 0A75                                      l3108 0C14  
                                    l3060 0B1E                                      l3124 16FA  
                                    l3116 16F2                                      l3028 14CF  
                                    l3052 158B                                      l3044 1608  
                                    l3036 15F8                                      l3300 0F6A  
                                    l3220 0E72                                      l3212 0E6C  
                                    l3206 0A6D                                      l3150 0AC0  
                                    l3142 0A9F                                      l3134 0A7B  
                                    l3070 0B3F                                      l3062 0B29  
                                    l3126 1706                                      l3118 16F8  
                                    l3054 158C                                      l3046 160E  
                                    l3038 15FB                                      l3310 0FB0  
                                    l3302 0F71                                      l3230 0E7C  
                                    l3222 0E74                                      l3214 0E6F  
                                    l3400 0505                                      l3160 0AEB  
                                    l3152 0ACD                                      l3144 0AA9  
                                    l3136 0A83                                      l3080 0B76  
                                    l3072 0B45                                      l3064 0B2E  
                                    l3128 170C                                      l3056 158D  
                                    l3048 1582                                      l3320 0FBB  
                                    l3304 0F7A                                      l3312 0FB5  
                                    l3240 0E84                                      l3232 0E7D  
                                    l3224 0E76                                      l3216 0E70  
                                    l3208 0D78                                      l2610 090F  
                                    l3410 0520                                      l3402 050A  
                                    l3170 09CF                                      l3162 0AF5  
                                    l3154 0AD4                                      l3146 0AB0  
                                    l3138 0A8B                                      l3090 0BB5  
                                    l3074 0B4F                                      l3066 0B34  
                                    l3058 0B1B                                      l3330 0FD9  
                                    l3322 0FBF                                      l3314 0FB8  
                                    l3306 0F95                                      l3250 0EB6  
                                    l3242 0E8A                                      l3234 0E7E  
                                    l3226 0E78                                      l3218 0E71  
                                    l2620 091F                                      l2612 0910  
                                    l2700 16B2                                      l3500 06FB  
                                    l3420 055A                                      l3412 0533  
                                    l3404 0510                                      l3180 09F9  
                                    l3172 09D5                                      l3164 0B02  
                                    l3156 0ADE                                      l3148 0AB6  
                                    l3092 0BBD                                      l3084 0B83  
                                    l3076 0B59                                      l3068 0B39  
                                    l3340 0FF9                                      l3332 0FDF  
                                    l3324 0FC7                                      l3316 0FB9  
                                    l3308 0FA4                                      l3260 0EEA  
                                    l3252 0EBF                                      l3244 0E92  
                                    l3236 0E7F                                      l3228 0E7A  
                                    l2630 0938                                      l2622 0924  
                                    l2614 0914                                      l2710 15C1  
                                    l2702 15B2                                      l3510 0718  
                                    l3502 0701                                      l3430 0571  
                                    l3422 055E                                      l3414 054C  
                                    l3406 0516                                      l3350 042A  
                                    l3190 0A27                                      l3182 0A03  
                                    l3174 09DD                                      l3166 0B09  
                                    l3158 0AE5                                      l3094 0BC1  
                                    l3086 0BAF                                      l3078 0B5C  
                                    l3334 0FE5                                      l3326 0FCD  
                                    l3318 0FBA                                      l3270 0EF9  
                                    l3262 0EEB                                      l3254 0EDA  
                                    l3246 0E99                                      l3238 0E80  
                                    l2632 093C                                      l2624 092A  
                                    l2640 0959                                      l2616 0919  
                                    l2720 15A6                                      l2712 15C6  
                                    l2704 15B7                                      l3520 0737  
                                    l3512 071E                                      l3504 0706  
                                    l3440 05D0                                      l3432 0584  
                                    l3416 0552                                      l3408 051A  
                                    l3424 0563                                      l3360 0437  
                                    l3352 042B                                      l3344 03C3  
                                    l3192 0A2E                                      l3184 0A0A  
                                    l3176 09E5                                      l3168 0B13  
                                    l2800 179B                                      l3096 0BC9  
                                    l3088 0BB1                                      l3336 0FEB  
                                    l3328 0FD3                                      l3280 0F17  
                                    l3272 0EFF                                      l3264 0EEC  
                                    l3256 0EDE                                      l3248 0EAF  
                                    l3600 0153                                      l2642 095E  
                                    l2634 0946                                      l2626 092D  
                                    l2618 091B                                      l2650 14F3  
                                    l2722 15A8                                      l2714 1599  
                                    l2706 15BC                                      l3530 0745  
                                    l3522 0738                                      l3514 0724  
                                    l3506 070C                                      l3450 062F  
                                    l3442 05E3                                      l3434 0597  
                                    l3426 0569                                      l3418 0553  
                                    l3370 047D                                      l3362 043D  
                                    l3354 042C                                      l3346 03CD  
                                    l3194 0A38                                      l3186 0A10  
                                    l3178 09F2                                      l2810 17A2  
                                    l2802 179C                                      l2730 17D9  
                                    l3098 0BCD                                      l3290 0F29  
                                    l3282 0F1D                                      l3274 0F05  
                                    l3266 0EED                                      l3258 0EE7  
                                    l3610 019C                                      l3602 0166  
                                    l2644 0963                                      l2636 094C  
                                    l2628 0934                                      l2900 14F5  
                                    l2660 1558                                      l2724 15AD  
                                    l2716 159E                                      l2708 15BF  
                                    l3540 0764                                      l3532 074A  
                                    l3524 0739                                      l3516 072A  
                                    l3508 0712                                      l3460 0671  
                                    l3452 0642                                      l3444 05F6  
                                    l3436 05AA                                      l3428 056D  
                                    l3372 048C                                      l3364 0447  
                                    l3380 04A2                                      l3356 042D  
                                    l3348 0427                                      l3196 0A3F  
                                    l3188 0A1A                                      l2820 17A7  
                                    l2812 17A3                                      l2804 179D  
                                    l2732 17E6                                      l2740 17FA  
                                    l3292 0F3F                                      l3276 0F0B  
                                    l3268 0EF1                                      l3700 030D  
                                    l3620 01B5                                      l3612 01A0  
                                    l3604 017F                                      l2638 0953  
                                    l2670 1616                                      l2910 0014  
                                    l2902 1503                                      l2662 155E  
                                    l2654 1556                                      l2718 15A3  
                                    l3550 0788                                      l3542 076A  
                                    l3534 0752                                      l3526 073A  
                                    l3518 0736                                      l3470 0683  
                                    l3462 0672                                      l3454 0655  
                                    l3446 0609                                      l3438 05BD  
                                    l3390 04CB                                      l3382 04A8  
                                    l3374 0492                                      l3366 0451  
                                    l3358 0431                                      l3198 0A45  
                                    l2830 17BF                                      l2822 17AD  
                                    l2814 17A4                                      l2806 179E  
                                    l2734 17EC                                      l2726 17C6  
                                    l2750 0810                                      l2742 0807  
                                    l3294 0F45                                      l3278 0F11  
                                    l3710 031F                                      l3702 030E  
                                    l3630 01EE                                      l3622 01BB  
                                    l3606 018E                                      l3614 01A5  
                                    l2648 14E2                                      l2680 1628  
                                    l2912 0018                                      l2904 1504  
                                    l3560 07B2                                      l3552 0791  
                                    l3544 0770                                      l3536 0758  
                                    l3528 073E                                      l3480 06AA  
                                    l3472 0689                                      l3464 0673  
                                    l3456 0668                                      l3448 061C  
                                    l3392 04E4                                      l3384 04AE  
                                    l3376 0499                                      l3368 0464  
                                    l3800 003E                                      l2920 0968  
                                    l2664 1507                                      l2832 17C4  
                                    l2824 17B2                                      l2816 17A5  
                                    l2808 179F                                      l2736 17EF  
                                    l2728 17CF                                      l2760 0819  
                                    l2752 0813                                      l3296 0F4D  
                                    l3288 0F21                                      l3720 033C  
                                    l3712 0324                                      l3704 030F  
                                    l3640 020A                                      l3632 01F5  
                                    l3624 01CE                                      l3616 01AB  
                                    l3608 0195                                      l2682 1629  
                                    l2690 16A0                                      l2914 001C  
                                    l3570 07CE                                      l3562 07B8  
                                    l3554 079A                                      l3546 0776  
                                    l3538 075E                                      l3490 06EE  
                                    l3482 06B0                                      l3466 0674  
                                    l3458 066E                                      l3394 04F3  
                                    l3386 04B2                                      l3378 049D  
                                    l3810 0077                                      l3802 0045  
                                    l2930 0978                                      l2922 0969  
                                    l2842 156E                                      l2666 150B  
                                    l2826 17B3                                      l2818 17A6  
                                    l2738 17F0                                      l2770 082D  
                                    l2762 081A                                      l2754 0816  
                                    l3298 0F54                                      l3730 0358  
                                    l3722 0342                                      l3714 032A  
                                    l3706 0313                                      l3650 025A  
                                    l3642 020E                                      l3634 01F9  
                                    l3626 01E7                                      l3618 01B1  
                                    l2684 162F                                      l2676 1620  
                                    l2916 001E                                      l2908 0006  
                                    l3572 07CF                                      l3564 07C1  
                                    l3556 07A0                                      l3548 0782  
                                    l3492 06EF                                      l3484 06DA  
                                    l3476 0693                                      l3468 0678  
                                    l3396 04FA                                      l3388 04B8  
                                    l3820 00BB                                      l3812 0089  
                                    l3804 0057                                      l2940 098C  
                                    l2932 097D                                      l2924 096D  
                                    l2844 1574                                      l2836 156C  
                                    l2668 1511                                      l2828 17BD  
                                    l2780 083B                                      l2772 0830  
                                    l2764 081B                                      l2756 0817  
                                    l2748 080B                                      l2860 1736  
                                    l3740 03AD                                      l3732 0359  
                                    l3724 0348                                      l3716 0330  
                                    l3708 0319                                      l3660 0295  
                                    l3652 026D                                      l3644 0221  
                                    l3628 01ED                                      l3636 01FE  
                                    l3580 00D5                                      l3900 0D2A  
                                    l2870 1540                                      l2678 1621  
                                    l2686 1697                                      l3574 07D0  
                                    l3566 07CA                                      l3558 07A9  
                                    l3494 06F0                                      l3486 06E0  
                                    l3478 06A6                                      l3398 0501  
                                    l3822 00C2                                      l3814 0090  
                                    l3806 005E                                      l2950 09B2  
                                    l2942 0993                                      l2934 0981  
                                    l2926 0972                                      l2790 1791  
                                    l2782 178C                                      l2774 0831  
                                    l2766 0820                                      l2758 0818  
                                    l2862 1737                                      l2854 1726  
                                    l2846 171D                                      l3750 08D2  
                                    l3742 03AE                                      l3734 03A8  
                                    l3726 0354                                      l3718 0336  
                                    l3670 02A4                                      l3662 0296  
                                    l3654 0280                                      l3646 0234  
                                    l3638 0204                                      l3590 013E  
                                    l3582 00DF                                      l3910 0D3B  
                                    l3902 0D32                                      l3830 0C57  
                                    l2880 166B                                      l2696 16A2  
                                    l2688 169A                                      l3576 07D4  
                                    l3568 07CD                                      l3496 06F1  
                                    l3488 06ED                                      l3816 00A2  
                                    l3808 0070                                      l2960 09CA  
                                    l2952 09B3                                      l2944 0997  
                                    l2936 0983                                      l2928 0974  
                                    l2792 1793                                      l2784 178D  
                                    l2776 0832                                      l2768 0823  
                                    l2864 173D                                      l2856 172D  
                                    l2848 171E                                      l3760 0902  
                                    l3752 08DD                                      l3744 03B2  
                                    l3736 03AB                                      l3728 0357  
                                    l3680 02AD                                      l3672 02A5  
                                    l3664 0297                                      l3656 0293  
                                    l3648 0247                                      l3592 013F  
                                    l3584 0139                                      l3912 0D41  
                                    l3904 0D37                                      l3840 0C70  
                                    l3832 0C5C                                      l3824 0C49  
                                    l2882 167C                                      l2698 16AC  
                                    l3578 07DF                                      l3498 06F5  
                                    l3818 00A9                                      l2954 09BA  
                                    l2946 099B                                      l2938 0989  
                                    l2970 088A                                      l2794 1796  
                                    l2778 0839                                      l2866 1750  
                                    l2858 1731                                      l3762 0908  
                                    l3754 08EC                                      l3770 0866  
                                    l2890 16C3                                      l3746 03BC  
                                    l3738 03AC                                      l3690 02D4  
                                    l3674 02A7                                      l3666 029B  
                                    l3658 0294                                      l3594 0143  
                                    l3586 013C                                      l3914 0D49  
                                    l3850 0C8C                                      l3842 0C75  
                                    l3834 0C61                                      l3826 0C4D  
                                    l2876 1542                                      l2884 1682  
                                    l2948 09AC                                      l2956 09C0  
                                    l2980 08B0                                      l2972 0891  
                                    l2964 087F                                      l2796 1799  
                                    l3780 15E1                                      l3772 15CB  
                                    l3756 08F6                                      l3748 08C3  
                                    l3764 0841                                      l2892 16D4  
                                    l3692 02F8                                      l3684 02B7  
                                    l3676 02A9                                      l3668 02A1  
                                    l3596 0149                                      l3588 013D  
                                    l3916 0D56                                      l3860 0CA9  
                                    l3852 0C92                                      l3844 0C7A  
                                    l3836 0C66                                      l3828 0C52  
                                    l2878 1548                                      l2886 1695  
                                    l2958 09C5                                      l2982 08B1  
                                    l2974 0895                                      l2966 0881  
                                    l2990 1752                                      l2798 179A  
                                    l3790 14DB                                      l3774 15D1  
                                    l3782 15E9                                      l3758 08FC  
                                    l3766 0850                                      l2894 16DA  
                                    l3694 02FE                                      l3686 02CA  
                                    l3678 02AB                                      l3598 014D  
                                    l3918 0D6B                                      l3870 0CC7  
                                    l3862 0CAF                                      l3854 0C98  
                                    l3846 0C80                                      l3838 0C6B  
                                    l2984 08B8                                      l2976 0899  
                                    l2968 0887                                      l2992 1758  
                                    l3792 14DD                                      l3776 15D4  
                                    l3768 085D                                      l2896 16ED  
                                    l3688 02CE                                      l3696 030B  
                                    l3880 0CE4                                      l3872 0CCD  
                                    l3864 0CB5                                      l3856 0C9E  
                                    l3848 0C86                                      l3794 0020  
                                    l2978 08AA                                      l2986 08BE  
                                    l2994 175B                                      l3778 15D9  
                                    l3698 030C                                      l3890 0D00  
                                    l3882 0CEA                                      l3874 0CD2  
                                    l3866 0CBB                                      l3858 0CA3  
                                    l3796 0026                                      l2996 1762  
                                    l3788 14D1                                      l3892 0D05  
                                    l3884 0CF0                                      l3876 0CD8  
                                    l3868 0CC1                                      l3798 002C  
                                    l2998 1766                                      l3894 0D0A  
                                    l3886 0CF6                                      l3878 0CDE  
                                    l3896 0D10                                      l3888 0CFB  
                          ?_display_clock 0070                                      l3898 0D1D  
                                    u2000 0437                                      u2001 0436  
                                    u2010 043D                                      u2011 043C  
                                    u1300 092A                                      u2100 0516  
                                    u2020 0447                                      u1301 0929  
                                    u2101 0515                                      u2021 0446  
                                    u2110 0552                                      u2030 0492  
                                    u2111 0551                                      u2031 0491  
                                    u1320 093C                                      u1400 1620  
                                    u2200 07D4                                      u2120 055A  
                                    u2040 0499                                      u1321 093B  
                                    u1401 161F                                      u2201 07D3  
                                    u2121 0559                                      u2041 0498  
                                    u1330 0946                                      u1410 163C  
                                    u2130 0678                                      u2050 04A8  
                                    u2210 00DF                                      u1331 0945  
                                    u1315 092E                                      u1411 163B  
                                    u2131 0677                                      u2051 04A7  
                                    u2211 00DE                                      u1420 16BF  
                                    u2140 06AA                                      u2060 04AE  
                                    u1500 1731                                      u2300 029B  
                                    u2220 0143                                      u1421 16BE  
                                    u2141 06A9                                      u2061 04AD  
                                    u1501 1730                                      u2301 029A  
                                    u2221 0142                                      u1350 0959  
                                    u2150 06B0                                      u2070 04FA  
                                    u1430 17EC                                      u1510 174A  
                                    u2310 02CE                                      u2230 0149  
                                    u1351 0958                                      u1335 0942  
                                    u1415 1638                                      u2151 06AF  
                                    u2071 04F9                                      u1431 17EB  
                                    u1511 1749                                      u2311 02CD  
                                    u2231 0148                                      u1520 1555  
                                    u1360 095E                                      u1280 0914  
                                    u2160 06F5                                      u2080 0501  
                                    u1440 17FF                                      u2400 085D  
                                    u2320 02D4                                      u2240 0195  
                                    u1521 1554                                      u1361 095D  
                                    u1345 094D                                      u1281 0913  
                                    u1425 16BB                                      u2161 06F4  
                                    u2081 0500                                      u1441 17FE  
                                    u2401 085C                                      u2321 02D3  
                                    u2241 0194                                      u1290 091F  
                                    u1530 167C                                      u1370 156B  
                                    u2170 06FB                                      u2090 0510  
                                    u1610 099B                                      u1450 0820  
                                    u2410 0866                                      u2330 0313  
                                    u2250 019C                                      u1291 091E  
                                    u1531 167B                                      u1371 156A  
                                    u2171 06FA                                      u2091 050F  
                                    u1611 099A                                      u1451 081F  
                                    u1515 1746                                      u2411 0865  
                                    u2331 0312                                      u2251 019B  
                                    u2180 073E                                      u2500 00A9  
                                    u1380 1511                                      u1460 0840  
                                    u2420 15D1                                      u1540 16D4  
                                    u2340 0319                                      u2260 01AB  
                                    u1525 1551                                      u2181 073D  
                                    u2501 00A8                                      u1605 098D  
                                    u1381 1510                                      u1461 083F  
                                    u2421 15D0                                      u2405 0859  
                                    u1541 16D3                                      u2341 0318  
                                    u2261 01AA                                      u1550 1503  
                                    u2190 0745                                      u2510 00C2  
                                    u1630 09AC                                      u1710 08AA  
                                    u1390 1517                                      u1470 17B2  
                                    u2430 14DB                                      u2350 03B2  
                                    u2270 01B1                                      u1551 1502  
                                    u1375 1567                                      u2191 0744  
                                    u2511 00C1                                      u1631 09AB  
                                    u1711 08A9                                      u1391 1516  
                                    u1471 17B1                                      u2431 14DA  
                                    u2351 03B1                                      u2271 01B0  
                                    u1560 0014                                      u2440 0026  
                                    u1480 17C4                                      u2360 08D2  
                                    u2280 01ED                                      u2520 0D56  
                                    u1561 0013                                      u2441 0025  
                                    u1625 099C                                      u1705 089A  
                                    u1481 17C3                                      u2361 08D1  
                                    u2281 01EC                                      u2521 0D55  
                                    u2450 002C                                      u1650 09C0  
                                    u1570 096D                                      u1730 08BE  
                                    u1490 1581                                      u2370 08DD  
                                    u2290 01F5                                      u2451 002B  
                                    u1651 09BF                                      u1635 09A8  
                                    u1571 096C                                      u1731 08BD  
                                    u1715 08A6                                      u1491 1580  
                                    u2371 08DC                                      u2291 01F4  
                                    u2460 0045                                      u1660 09C5  
                                    u1580 0978                                      u1740 1758  
                                    u2380 08EC                                      u1900 0D82  
                                    u2461 0044                                      u1661 09C4  
                                    u1645 09B4                                      u1581 0977  
                                    u1725 08B2                                      u1741 1757  
                                    u1805 0B61                                      u2381 08EB  
                                    u2365 08CE                                      u1901 0D81  
                                    u2525 0D52                                      u2470 005E  
                                    u1590 0989                                      u1670 0887  
                                    u1830 0BB5                                      u2390 0850  
                                    u1910 0E84                                      u2471 005D  
                                    u1591 0988                                      u1671 0886  
                                    u1495 157D                                      u1831 0BB4  
                                    u1815 0B6C                                      u2375 08D9  
                                    u2391 084F                                      u1911 0E83  
                                    u2480 0077                                      u1760 176A  
                                    u1840 0BC1                                      u1920 0EF1  
                                    u2481 0076                                      u1761 1769  
                                    u1841 0BC0                                      u1825 0B79  
                                    u2385 08E8                                      u1921 0EF0  
                                    u2490 0090                                      u1690 0899  
                                    u1770 1774                                      u1850 0BCD  
                                    u1930 0F36                                      u2491 008F  
                                    u1691 0898                                      u1771 1773  
                                    u1755 175C                                      u1851 0BCC  
                                    u2395 084C                                      u1931 0F35  
                                    u1860 0BD9                                      u1940 0F3F  
                                    u1685 088B                                      u1861 0BD8  
                                    u1941 0F3E                                      u1790 1787  
                                    u1870 1719                                      u1950 0FA4  
                                    u1791 1786                                      u1775 1770  
                                    u1871 1718                                      u1951 0FA3  
                                    u1935 0F32                                      u1880 0A7B  
                                    u1960 0FBF                                      u1881 0A7A  
                                    u1785 177B                                      u1961 0FBE  
                                    u1890 09D5                                      u1970 0FF9  
                                    u1891 09D4                                      u1875 1715  
                                    u1971 0FF8                                      u1980 03CD  
                                    u1981 03CC                                      u1990 0431  
                                    u1991 0430               time_date_hex_terminator@val 0073  
                    ?_set_beep_threshhold 0070                                      _main 0C49  
                                    _init 14C8                                      _var1 0041  
                                    _var2 0040                                      btemp 007E  
         time_date_hex_terminator@limiter 0070                             write_byte@val 0077  
                                    start 0000                    time_date_delimiter@hex 0070  
                  time_date_delimiter@val 0074                              ?_incrementor 0055  
             __size_of_initialise_buttons 0016                            ??_display_date 0073  
                                   ?_main 0070                            ??_display_temp 0073  
                                   ?_init 0070                           __end_of___awdiv 09CF  
                           __CFG_WDTE$OFF 0000                           __end_of___awmod 0968  
                         ___awdiv@divisor 0070                      __end_of_delay_screen 156C  
                         __end_of___lwdiv 08C3                           __end_of___lwmod 178C  
                         ___awdiv@counter 0075                                     _PORTD 0008  
                                   _PORTE 0009                                     _TRISA 0085  
                                   _TRISB 0086                                     _TRISC 0087  
                                   _TRISD 0088                                     _TRISE 0089  
                           __CFG_PWRTE$ON 0000                                     _count 0029  
                                   _table 0061                                     _stats 002B  
                                   main@i 005F                            write_byte@temp 0076  
                     _set_lower_threshold 08C3                            __CFG_BOREN$OFF 0000  
                                   pclath 000A                     ??_set_beep_threshhold 0072  
                                   status 0003                      __size_of_decrementor 002C  
                                   wtemp0 007E                             ??_ds1302_init 0075  
                         __initialization 07E6                              __end_of_main 0D78  
                            __end_of_init 14D1                     __end_of_date_settings 07E6  
                    ?_set_lower_threshold 0073                                    ??_main 007E  
                                  ??_init 0070                      incrementor@lower_val 0057  
                         ??_display_clock 0073                                    _ADCON1 009F  
                        ___awdiv@dividend 0072                                    _TRISA0 0428  
                                  _TRISB4 0434                                    _TRISE0 0448  
                           ?_button_delay 0070                              ?_reset_alarm 0070  
                    incrementor@upper_val 0055                          __end_of_lcd_init 1615  
                        __end_of_get_temp 0C49                          __end_of_get_time 171D  
                                  _baifen 004D                                 ??___awdiv 0074  
                               ??___awmod 0074                                    _delay2 156C  
                   ??_set_lower_threshold 0077                                 ??___lwdiv 007A  
                               ??___lwmod 0074                       __end_of_ds1302_init 1540  
                     _set_upper_threshold 0841                                    _table1 0020  
                        ___awdiv@quotient 0077                           ___awmod@divisor 0070  
                                  _shifen 004E                                    _wanfen 004B  
                         ___awmod@counter 0075                      __size_of_display_day 00B5  
                            ?_time_read_1 0070                       time_write_1@time_tx 0074  
                           display_date@i 0075                          __end_of_set_time 16C3  
                      reset_temp@presence 0075                      ?_set_upper_threshold 0073  
                 __end_of__initialization 07FC                            ??_button_delay 0070  
            __size_of_time_date_delimiter 001B                      __end_of_display_date 0B1B  
                    __end_of_display_temp 166B                            __pcstackCOMMON 0070  
                            __pidataBANK0 14C0                     __size_of_delay_screen 0016  
                    __size_of_incrementor 002C                     ??_set_upper_threshold 0077  
                              __pbssBANK0 0020                              _delay_screen 1556  
                      __size_of_init_temp 0007                        __size_of_read_byte 003A  
                             _ds1302_init 152B                                _delay_temp 1506  
                              __pmaintext 0C49                                   ?_delay2 0070  
                           ?_modulus_func 0077                        time_read_1@time_rx 0074  
                            incrementor@z 0059                                 ?_lcd_init 0070  
                               ?_get_temp 0070                     __end_of_time_settings 03C3  
                               ?_get_time 0070                        __size_of_write_cmd 0019  
                               ?_set_time 0070                      __size_of_reset_alarm 0011  
                          ??_modulus_func 007B              set_upper_threshold@lower_val 0075  
              __end_of_initialise_buttons 1598                  _time_date_hex_terminator 14F4  
                                 ___awdiv 0968                                   ___awmod 090F  
                         __size_of_delay2 0016                                   ___lwdiv 087F  
                                 ___lwmod 1752                                   _day_hex 0047  
                                 _day_low 0031                                   __ptext1 00D5  
                                 __ptext2 0D78                                   __ptext3 16C3  
                                 __ptext4 0841                                   __ptext5 08C3  
                                 __ptext6 15CA                                   __ptext7 14D1  
                                 __ptext8 15ED                                   __ptext9 1582  
                    __end_of_button_delay 1556                                   delay2@i 0070  
                       __end_of_init_temp 14B8                          ___awmod@dividend 0072  
                       __end_of_read_byte 17C6                                   _qianfen 004C  
                    __size_of_time_read_1 0035                                   _lower_t 0044  
             __end_of_set_beep_threshhold 15ED              set_upper_threshold@upper_val 0073  
                   __size_of_display_date 00A6                                   clrloop0 14B9  
                              ??_lcd_init 0073                                   _upper_t 0045  
                           ??_decrementor 007B                                ??_get_temp 0055  
                              ??_get_time 0075                     __size_of_display_temp 002B  
                    end_of_initialization 07FC                            display_day@num 0073  
                          display_clock@i 0075                             ?_time_write_1 0070  
                             ?_delay_temp 0070                                _reset_temp 17C6  
                              ??_set_time 0075                       _time_date_delimiter 0005  
                    decrementor@lower_val 0055                              _display_date 0A75  
                            _display_temp 1640                         __end_of_write_cmd 15CA  
                           modulus_func@x 0077                             modulus_func@y 0079  
                   __end_of_display_clock 0A75                    __size_of_date_settings 0423  
                    ?_time_date_delimiter 0070                      decrementor@upper_val 0057  
                          ??_time_write_1 0070               __end_of_set_lower_threshold 090F  
                     __end_of_decrementor 16EF                             ??_display_day 0075  
                          __end_of_delay2 1582                                _write_char 1598  
                              _write_byte 0806                       start_initialization 07E6  
                           delay_screen@i 0070                       __size_of_delay_temp 0012  
                    __end_of_modulus_func 14F4                     ??_time_date_delimiter 0072  
                            ?_ds1302_init 0070                               ?_reset_temp 0070  
                           ??_incrementor 007B                                init_fetch0 1518  
                                ??_delay2 0070                     __size_of_button_delay 0016  
                           _date_settings 03C3                               __pdataBANK0 0061  
                              read_byte@i 0076                                read_byte@j 003F  
             __end_of_set_upper_threshold 087F                       __end_of_display_day 00D5  
                               ___latbits 0002                             __pcstackBANK0 0055  
                             _decrementor 16C3                      set_beep_threshhold@x 0072  
                       __size_of_lcd_init 0028                         __size_of_get_temp 012E  
                       __size_of_get_time 002E                ??_time_date_hex_terminator 0071  
                            _button_delay 1540                          ___lwdiv@dividend 0078  
                             _day_counter 0027                                  ?___awdiv 0070  
                          ?_date_settings 0070                                  ?___awmod 0070  
                                ?___lwdiv 0076                                  ?___lwmod 0070  
                       __size_of_set_time 002C                               ?_write_char 0070  
                             ?_write_byte 0070                       __end_of_incrementor 1697  
                    __end_of_time_write_1 1640                        _initialise_buttons 1582  
                         _day_of_week_var 002D                       __size_of_reset_temp 003A  
                        ___lwdiv@quotient 007B                                 _init_temp 14B1  
                               _read_byte 178C                              decrementor@z 0059  
                     ?_initialise_buttons 0070                                 clear_ram0 14B8  
                           ??_reset_alarm 0070                              ??_delay_temp 0071  
                             _display_day 0020   __end_of_thermometer_threshhold_settings 1000  
__size_of_thermometer_threshhold_settings 0288         ??_thermometer_threshhold_settings 005A  
        ?_thermometer_threshhold_settings 0070           _thermometer_threshhold_settings 0D78  
                    ??_initialise_buttons 0070                    __size_of_time_settings 02EE  
        thermometer_threshhold_settings@i 005D                             ??_time_read_1 0070  
                             write_char@x 0072                     __size_of_modulus_func 0012  
                               get_time@i 0076                               write_byte@i 0078  
                      __end_of_delay_temp 1518                                 _write_cmd 15B1  
                              ?_init_temp 0070                                ?_read_byte 0070  
                         _buzzer_watcher1 0042                       __size_of_write_char 0019  
            __size_of_set_beep_threshhold 0023                       __size_of_write_byte 003B  
                         ??_date_settings 005A                      __size_of_ds1302_init 0015  
                             _incrementor 166B                              _modulus_func 14E2  
                     __end_of_reset_alarm 14E2                          __size_of___awdiv 0067  
                        __size_of___awmod 0059                          __size_of___lwdiv 0044  
                        __size_of___lwmod 003A                                  _day_high 002F  
                         ___lwdiv@divisor 0076                           ___lwdiv@counter 007D  
                                __ptext10 14B1                                  __ptext11 14C8  
                                __ptext20 1752                                  __ptext12 16EF  
                                __ptext21 087F                                  __ptext13 171D  
                                __ptext30 1598                                  __ptext22 0968  
                                __ptext14 0B1B                                  __ptext31 1556  
                                __ptext23 152B                                  __ptext15 0806  
                                __ptext32 14F4                                  __ptext24 1640  
                                __ptext16 17C6                                  __ptext33 0005  
                                __ptext25 0020                                  __ptext17 178C  
                                __ptext34 1697                                  __ptext26 0A75  
                                __ptext18 1506                                  __ptext35 1615  
                                __ptext27 09CF                                  __ptext19 156C  
                                __ptext36 166B                                  __ptext28 03C3  
                                __ptext37 14E2                                  __ptext29 15B1  
                                __ptext38 090F                                  __ptext39 1540  
                     __end_of_time_read_1 1752                                ?_write_cmd 0070  
                                _lcd_init 15ED                                  _get_temp 0B1B  
                                _get_time 16EF                             _time_settings 00D5  
        __end_of_time_date_hex_terminator 1506                             __size_of_main 012F  
                           __size_of_init 0009                             ?_delay_screen 0070  
                             _hrs_limiter 0046                                 set_time@i 0075  
                            ??_reset_temp 0074                                  _set_time 1697  
              time_date_delimiter@limiter 0071              __size_of_set_lower_threshold 004C  
                              write_cmd@x 0072                     __size_of_time_write_1 002B  
                  __size_of_display_clock 00A6                            _buzzer_watcher 0043  
                             delay_temp@x 0072                               delay_temp@y 0070  
                             delay_temp@z 0073                            read_byte@value 0075  
             __end_of_time_date_delimiter 0020                                  init_ram0 151C  
                           button_delay@i 0070                               ??_init_temp 0070  
                      __end_of_reset_temp 1800                               ??_read_byte 0074  
                          ?_time_settings 0070                              ?_decrementor 0055  
                        ___lwmod@dividend 0072                            ??_delay_screen 0070  
                             _reset_alarm 14D1                              _time_write_1 1615  
                            ??_write_char 0072                              ??_write_byte 0074  
                              _OPTION_REG 0081                               _time_read_1 171D  
                            time_read_1@j 0072                           ___lwmod@divisor 0070  
                         ___lwmod@counter 0075                               ??_write_cmd 0072  
            __size_of_set_upper_threshold 003E                             _display_clock 09CF  
                           time_write_1@j 0072                        __end_of_write_char 15B1  
                      __end_of_write_byte 0841  
